(dp0
ccopy_reg
_reconstructor
p1
(cscripts.archipelago_tuples
Parameters
p2
c__builtin__
tuple
p3
(S'0.10000000'
p4
S'0.01000000'
p5
S'0.025'
p6
S'100'
p7
S'10'
p8
tp9
tp10
Rp11
g1
(cscripts.archipelago_tuples
Metrics
p12
g3
(F0.39394720496894403
F0.08241973302129152
F0.5930124223602485
F0.17888198757763976
tp13
tp14
Rp15
sg1
(g2
g3
(S'0.10000000'
p16
S'1000.00000000'
p17
S'0.025'
p18
S'100'
p19
S'10'
p20
tp21
tp22
Rp23
g1
(g12
g3
(F0.8861444099378881
F0.010492053853635977
F0.9063664596273291
F0.8383540372670808
tp24
tp25
Rp26
sg1
(g2
g3
(S'0.10000000'
p27
S'0.00100000'
p28
S'0.025'
p29
S'100'
p30
S'10'
p31
tp32
tp33
Rp34
g1
(g12
g3
(F0.39091304347826084
F0.08256378197589728
F0.5864906832298138
F0.1777950310559006
tp35
tp36
Rp37
sg1
(g2
g3
(S'0.10000000'
p38
S'1.00000000'
p39
S'0.025'
p40
S'100'
p41
S'10'
p42
tp43
tp44
Rp45
g1
(g12
g3
(F0.3537531055900621
F0.07889537877985506
F0.5402173913043478
F0.1653726708074534
tp46
tp47
Rp48
sg1
(g2
g3
(S'0.10000000'
p49
S'10.00000000'
p50
S'0.025'
p51
S'100'
p52
S'10'
p53
tp54
tp55
Rp56
g1
(g12
g3
(F0.7663183229813665
F0.05904178960724975
F0.8531055900621117
F0.5313664596273291
tp57
tp58
Rp59
sg1
(g2
g3
(S'0.10000000'
p60
S'1000000.00000000'
p61
S'0.025'
p62
S'100'
p63
S'10'
p64
tp65
tp66
Rp67
g1
(g12
g3
(F0.3855590062111801
F0.0
F0.3855590062111801
F0.3855590062111801
tp68
tp69
Rp70
sg1
(g2
g3
(S'0.10000000'
p71
S'100.00000000'
p72
S'0.025'
p73
S'100'
p74
S'10'
p75
tp76
tp77
Rp78
g1
(g12
g3
(F0.8799844720496897
F0.009095774946656676
F0.8982919254658386
F0.8476708074534163
tp79
tp80
Rp81
sg1
(g2
g3
(S'0.10000000'
p82
S'10000000.00000000'
p83
S'0.025'
p84
S'100'
p85
S'10'
p86
tp87
tp88
Rp89
g1
(g12
g3
(F0.38493788819875774
F0.0
F0.38493788819875774
F0.38493788819875774
tp90
tp91
Rp92
sg1
(g2
g3
(S'0.10000000'
p93
S'0.00010000'
p94
S'0.025'
p95
S'100'
p96
S'10'
p97
tp98
tp99
Rp100
g1
(g12
g3
(F0.38420807453416156
F0.08308903174142987
F0.5821428571428571
F0.17080745341614906
tp101
tp102
Rp103
sg1
(g2
g3
(S'0.10000000'
p104
S'10000.00000000'
p105
S'0.025'
p106
S'100'
p107
S'10'
p108
tp109
tp110
Rp111
g1
(g12
g3
(F0.3936335403726708
F0.0
F0.3936335403726708
F0.3936335403726708
tp112
tp113
Rp114
sg1
(g2
g3
(S'0.10000000'
p115
S'100000.00000000'
p116
S'0.025'
p117
S'100'
p118
S'10'
p119
tp120
tp121
Rp122
g1
(g12
g3
(F0.3958074534161491
F0.0
F0.3958074534161491
F0.3958074534161491
tp123
tp124
Rp125
sg1
(g2
g3
(S'0.10000000'
p126
S'0.10000000'
p127
S'0.025'
p128
S'100'
p129
S'10'
p130
tp131
tp132
Rp133
g1
(g12
g3
(F0.38132919254658376
F0.08215248418187523
F0.5889751552795031
F0.19798136645962733
tp134
tp135
Rp136
s.