(dp0
ccopy_reg
_reconstructor
p1
(cscripts.archipelago_tuples
Parameters
p2
c__builtin__
tuple
p3
(S'0.100'
p4
S'10.000'
p5
S'0.050'
p6
S'50'
p7
S'10'
p8
tp9
tp10
Rp11
g1
(cscripts.archipelago_tuples
Metrics
p12
g3
(F0.13981366459627326
F0.03628259899905197
F0.26987577639751553
F0.09673913043478259
tp13
tp14
Rp15
sg1
(g2
g3
(S'0.100'
p16
S'10.000'
p17
S'0.050'
p18
S'70'
p19
S'10'
p20
tp21
tp22
Rp23
g1
(g12
g3
(F0.13735803016858916
F0.030584418171406336
F0.24658385093167698
F0.09720496894409937
tp24
tp25
Rp26
sg1
(g2
g3
(S'0.100'
p27
S'10.000'
p28
S'0.050'
p29
S'60'
p30
S'10'
p31
tp32
tp33
Rp34
g1
(g12
g3
(F0.1398524844720497
F0.03494236395036722
F0.28214285714285714
F0.09782608695652174
tp35
tp36
Rp37
sg1
(g2
g3
(S'0.100'
p38
S'10.000'
p39
S'0.050'
p40
S'100'
p41
S'10'
p42
tp43
tp44
Rp45
g1
(g12
g3
(F0.13209316770186338
F0.030612096516879756
F0.2737577639751553
F0.09130434782608696
tp46
tp47
Rp48
sg1
(g2
g3
(S'0.100'
p49
S'10.000'
p50
S'0.050'
p51
S'10'
p52
S'10'
p53
tp54
tp55
Rp56
g1
(g12
g3
(F0.17324534161490684
F0.04118543264047008
F0.2593167701863354
F0.12934782608695655
tp57
tp58
Rp59
sg1
(g2
g3
(S'0.100'
p60
S'10.000'
p61
S'0.050'
p62
S'20'
p63
S'10'
p64
tp65
tp66
Rp67
g1
(g12
g3
(F0.15697981366459626
F0.03846154597218823
F0.2537267080745342
F0.10993788819875774
tp68
tp69
Rp70
sg1
(g2
g3
(S'0.100'
p71
S'10.000'
p72
S'0.050'
p73
S'30'
p74
S'10'
p75
tp76
tp77
Rp78
g1
(g12
g3
(F0.14906832298136646
F0.03327020159705399
F0.2523291925465838
F0.10698757763975156
tp79
tp80
Rp81
sg1
(g2
g3
(S'0.100'
p82
S'10.000'
p83
S'0.050'
p84
S'40'
p85
S'10'
p86
tp87
tp88
Rp89
g1
(g12
g3
(F0.14218167701863355
F0.0372226023536514
F0.25931677018633537
F0.0998447204968944
tp90
tp91
Rp92
sg1
(g2
g3
(S'0.100'
p93
S'10.000'
p94
S'0.050'
p95
S'90'
p96
S'10'
p97
tp98
tp99
Rp100
g1
(g12
g3
(F0.13340062111801243
F0.03641406010463629
F0.29409937888198756
F0.08928571428571429
tp101
tp102
Rp103
sg1
(g2
g3
(S'0.100'
p104
S'10.000'
p105
S'0.050'
p106
S'80'
p107
S'10'
p108
tp109
tp110
Rp111
g1
(g12
g3
(F0.14126358695652172
F0.034391893551740105
F0.2850931677018634
F0.09875776397515529
tp112
tp113
Rp114
s.