(dp0
ccopy_reg
_reconstructor
p1
(cscripts.archipelago_tuples
Parameters
p2
c__builtin__
tuple
p3
(S'0.100'
p4
S'10.000'
p5
S'0.025'
p6
S'50'
p7
S'10'
p8
tp9
tp10
Rp11
g1
(cscripts.archipelago_tuples
Metrics
p12
g3
(F0.13663354037267078
F0.021979952774925905
F0.2169254658385093
F0.10015527950310558
tp13
tp14
Rp15
sg1
(g2
g3
(S'0.100'
p16
S'10.000'
p17
S'0.025'
p18
S'70'
p19
S'10'
p20
tp21
tp22
Rp23
g1
(g12
g3
(F0.13392413487133983
F0.02205607824438515
F0.2251552795031056
F0.1017080745341615
tp24
tp25
Rp26
sg1
(g2
g3
(S'0.100'
p27
S'10.000'
p28
S'0.025'
p29
S'100'
p30
S'10'
p31
tp32
tp33
Rp34
g1
(g12
g3
(F0.12798291925465838
F0.021620059742913426
F0.2450310559006211
F0.09456521739130433
tp35
tp36
Rp37
sg1
(g2
g3
(S'0.100'
p38
S'10.000'
p39
S'0.025'
p40
S'60'
p41
S'10'
p42
tp43
tp44
Rp45
g1
(g12
g3
(F0.13497412008281573
F0.025719102652728504
F0.24751552795031057
F0.09891304347826087
tp46
tp47
Rp48
sg1
(g2
g3
(S'0.100'
p49
S'10.000'
p50
S'0.025'
p51
S'80'
p52
S'10'
p53
tp54
tp55
Rp56
g1
(g12
g3
(F0.1276164596273292
F0.02337608360661561
F0.23385093167701862
F0.09223602484472052
tp57
tp58
Rp59
sg1
(g2
g3
(S'0.100'
p60
S'10.000'
p61
S'0.025'
p62
S'10'
p63
S'10'
p64
tp65
tp66
Rp67
g1
(g12
g3
(F0.1846273291925466
F0.034365542000925245
F0.2619565217391304
F0.14301242236024841
tp68
tp69
Rp70
sg1
(g2
g3
(S'0.100'
p71
S'10.000'
p72
S'0.025'
p73
S'20'
p74
S'10'
p75
tp76
tp77
Rp78
g1
(g12
g3
(F0.15215062111801242
F0.03483324327566116
F0.253416149068323
F0.11226708074534161
tp79
tp80
Rp81
sg1
(g2
g3
(S'0.100'
p82
S'10.000'
p83
S'0.025'
p84
S'30'
p85
S'10'
p86
tp87
tp88
Rp89
g1
(g12
g3
(F0.14711697722567288
F0.03248665274193493
F0.24409937888198757
F0.10993788819875776
tp90
tp91
Rp92
sg1
(g2
g3
(S'0.100'
p93
S'10.000'
p94
S'0.025'
p95
S'40'
p96
S'10'
p97
tp98
tp99
Rp100
g1
(g12
g3
(F0.13626552795031058
F0.028395967612491597
F0.2403726708074534
F0.10139751552795032
tp101
tp102
Rp103
sg1
(g2
g3
(S'0.100'
p104
S'10.000'
p105
S'0.025'
p106
S'90'
p107
S'10'
p108
tp109
tp110
Rp111
g1
(g12
g3
(F0.1283712905452036
F0.02187736421739429
F0.22158385093167704
F0.09440993788819876
tp112
tp113
Rp114
s.