(dp0
ccopy_reg
_reconstructor
p1
(cscripts.archipelago_tuples
Parameters
p2
c__builtin__
tuple
p3
(S'1.00000000'
p4
S'4.00000000'
p5
S'0.500'
p6
S'100'
p7
S'10'
p8
tp9
tp10
Rp11
g1
(cscripts.archipelago_tuples
Metrics
p12
g3
(F0.13151863354037266
F0.021563401641923118
F0.22531055900621116
F0.09767080745341614
tp13
tp14
Rp15
sg1
(g2
g3
(S'1.00000000'
p16
S'4.00000000'
p17
S'0.200'
p18
S'100'
p19
S'10'
p20
tp21
tp22
Rp23
g1
(g12
g3
(F0.1394580745341615
F0.021133591392116867
F0.23540372670807455
F0.10512422360248448
tp24
tp25
Rp26
sg1
(g2
g3
(S'1.00000000'
p27
S'4.00000000'
p28
S'0.250'
p29
S'100'
p30
S'10'
p31
tp32
tp33
Rp34
g1
(g12
g3
(F0.13874999999999998
F0.019854547061786527
F0.21413043478260868
F0.10232919254658383
tp35
tp36
Rp37
sg1
(g2
g3
(S'1.00000000'
p38
S'4.00000000'
p39
S'0.333'
p40
S'100'
p41
S'10'
p42
tp43
tp44
Rp45
g1
(g12
g3
(F0.13302018633540375
F0.021254968669467425
F0.24363354037267088
F0.09922360248447205
tp46
tp47
Rp48
sg1
(g2
g3
(S'1.00000000'
p49
S'4.00000000'
p50
S'1.000'
p51
S'100'
p52
S'10'
p53
tp54
tp55
Rp56
g1
(g12
g3
(F0.14108695652173914
F0.025139253682039862
F0.2524844720496894
F0.1031055900621118
tp57
tp58
Rp59
s.