(dp0
ccopy_reg
_reconstructor
p1
(cscripts.archipelago_tuples
Parameters
p2
c__builtin__
tuple
p3
(S'0.06250000'
p4
S'4.00000000'
p5
S'0.063'
p6
S'100'
p7
S'20'
p8
tp9
tp10
Rp11
g1
(cscripts.archipelago_tuples
Metrics
p12
g3
(F0.274554347826087
F0.09067850910365721
F0.441304347826087
F0.11149068322981366
tp13
tp14
Rp15
sg1
(g2
g3
(S'16.00000000'
p16
S'4.00000000'
p17
S'16.000'
p18
S'100'
p19
S'20'
p20
tp21
tp22
Rp23
g1
(g12
g3
(F0.14193167701863355
F0.028816161487921245
F0.2843167701863354
F0.10388198757763974
tp24
tp25
Rp26
sg1
(g2
g3
(S'1.00000000'
p27
S'4.00000000'
p28
S'1.000'
p29
S'100'
p30
S'20'
p31
tp32
tp33
Rp34
g1
(g12
g3
(F0.14439285714285716
F0.026585680412771567
F0.27049689440993785
F0.10419254658385094
tp35
tp36
Rp37
sg1
(g2
g3
(S'2.00000000'
p38
S'4.00000000'
p39
S'2.000'
p40
S'100'
p41
S'20'
p42
tp43
tp44
Rp45
g1
(g12
g3
(F0.14280434782608697
F0.029547313913861235
F0.2920807453416149
F0.10217391304347825
tp46
tp47
Rp48
sg1
(g2
g3
(S'0.25000000'
p49
S'4.00000000'
p50
S'0.250'
p51
S'100'
p52
S'20'
p53
tp54
tp55
Rp56
g1
(g12
g3
(F0.17242857142857146
F0.03192769774073317
F0.27981366459627327
F0.11273291925465838
tp57
tp58
Rp59
sg1
(g2
g3
(S'0.12500000'
p60
S'4.00000000'
p61
S'0.125'
p62
S'100'
p63
S'20'
p64
tp65
tp66
Rp67
g1
(g12
g3
(F0.21933695652173918
F0.05912933585476229
F0.36413043478260876
F0.11521739130434783
tp68
tp69
Rp70
sg1
(g2
g3
(S'8.00000000'
p71
S'4.00000000'
p72
S'8.000'
p73
S'100'
p74
S'20'
p75
tp76
tp77
Rp78
g1
(g12
g3
(F0.14499378881987576
F0.027396178189307497
F0.2782608695652174
F0.10978260869565218
tp79
tp80
Rp81
sg1
(g2
g3
(S'0.50000000'
p82
S'4.00000000'
p83
S'0.500'
p84
S'100'
p85
S'20'
p86
tp87
tp88
Rp89
g1
(g12
g3
(F0.14999999999999997
F0.029255792171796628
F0.299223602484472
F0.10947204968944099
tp90
tp91
Rp92
sg1
(g2
g3
(S'4.00000000'
p93
S'4.00000000'
p94
S'4.000'
p95
S'100'
p96
S'20'
p97
tp98
tp99
Rp100
g1
(g12
g3
(F0.13934006211180128
F0.029838218606177434
F0.27422360248447203
F0.09611801242236025
tp101
tp102
Rp103
s.