(dp0
ccopy_reg
_reconstructor
p1
(cscripts.archipelago_tuples
Parameters
p2
c__builtin__
tuple
p3
(S'16.00000000'
p4
S'0.03125000'
p5
S'16.000'
p6
S'30'
p7
S'5'
p8
tp9
tp10
Rp11
g1
(cscripts.archipelago_tuples
Metrics
p12
g3
(F0.14472312703583062
F0.012200623724932668
F0.18186753528773075
F0.12833876221498375
tp13
tp14
Rp15
sg1
(g2
g3
(S'16.00000000'
p16
S'0.25000000'
p17
S'16.000'
p18
S'30'
p19
g8
tp20
tp21
Rp22
g1
(g12
g3
(F0.17505247918928699
F0.03318945335959442
F0.2818675352877308
F0.1385450597176982
tp23
tp24
Rp25
sg1
(g2
g3
(S'16.00000000'
p26
S'16.00000000'
p27
S'16.000'
p28
S'30'
p29
g8
tp30
tp31
Rp32
g1
(g12
g3
(F0.6156351791530944
F0.0
F0.6156351791530944
F0.6156351791530944
tp33
tp34
Rp35
sg1
(g2
g3
(S'16.00000000'
p36
S'1.00000000'
p37
S'16.000'
p38
S'30'
p39
g8
tp40
tp41
Rp42
g1
(g12
g3
(F0.5663300760043432
F0.0948836831744572
F0.6147665580890337
F0.2085776330076005
tp43
tp44
Rp45
sg1
(g2
g3
(S'16.00000000'
p46
S'0.06250000'
p47
S'16.000'
p48
S'30'
p49
g8
tp50
tp51
Rp52
g1
(g12
g3
(F0.14860296778863552
F0.015655911588553017
F0.1960912052117264
F0.12638436482084695
tp53
tp54
Rp55
sg1
(g2
g3
(S'16.00000000'
p56
S'4.00000000'
p57
S'16.000'
p58
S'30'
p59
g8
tp60
tp61
Rp62
g1
(g12
g3
(F0.6156351791530944
F0.0
F0.6156351791530944
F0.6156351791530944
tp63
tp64
Rp65
sg1
(g2
g3
(S'16.00000000'
p66
S'2.00000000'
p67
S'16.000'
p68
S'30'
p69
g8
tp70
tp71
Rp72
g1
(g12
g3
(F0.613065508505248
F0.011256743862974409
F0.6156351791530944
F0.5537459283387622
tp73
tp74
Rp75
sg1
(g2
g3
(S'16.00000000'
p76
S'0.50000000'
p77
S'16.000'
p78
S'30'
p79
g8
tp80
tp81
Rp82
g1
(g12
g3
(F0.3449366630474123
F0.14607129831935753
F0.5757871878393052
F0.14549402823018462
tp83
tp84
Rp85
sg1
(g2
g3
(S'16.00000000'
p86
S'32.00000000'
p87
S'16.000'
p88
S'30'
p89
g8
tp90
tp91
Rp92
g1
(g12
g3
(F0.615638798407528
F1.9490281603816527e-05
F0.615743756786102
F0.6156351791530944
tp93
tp94
Rp95
sg1
(g2
g3
(S'16.00000000'
p96
S'0.12500000'
p97
S'16.000'
p98
S'30'
p99
g8
tp100
tp101
Rp102
g1
(g12
g3
(F0.154614549402823
F0.016146535198714226
F0.2031487513572204
F0.13061889250814335
tp103
tp104
Rp105
sg1
(g2
g3
(S'16.00000000'
p106
S'8.00000000'
p107
S'16.000'
p108
S'30'
p109
g8
tp110
tp111
Rp112
g1
(g12
g3
(F0.6133224755700325
F0.012454289944838756
F0.6156351791530944
F0.5462540716612377
tp113
tp114
Rp115
s.