(dp0
ccopy_reg
_reconstructor
p1
(cscripts.archipelago_tuples
Parameters
p2
c__builtin__
tuple
p3
(S'0'
p4
g4
g4
S'100'
p5
S'100'
p6
tp7
tp8
Rp9
g1
(cscripts.archipelago_tuples
Metrics
p10
g3
(F0.2911802388707927
F0.07231236476394375
F0.5839305103148751
F0.16026058631921827
tp11
tp12
Rp13
sg1
(g2
g3
(g4
S'8'
p14
g4
S'100'
p15
S'100'
p16
tp17
tp18
Rp19
g1
(g10
g3
(F0.39524972855591756
F0.06707969359311523
F0.6156351791530944
F0.24136807817589584
tp20
tp21
Rp22
sg1
(g2
g3
(g4
S'1'
p23
g4
S'100'
p24
S'100'
p25
tp26
tp27
Rp28
g1
(g10
g3
(F0.3525439739413681
F0.07348553843249178
F0.6015200868621065
F0.1621064060803475
tp29
tp30
Rp31
sg1
(g2
g3
(g4
S'4'
p32
g4
S'100'
p33
S'100'
p34
tp35
tp36
Rp37
g1
(g10
g3
(F0.3912931596091206
F0.07052896348168376
F0.6152008686210639
F0.20347448425624326
tp38
tp39
Rp40
sg1
(g2
g3
(g4
S'2'
p41
g4
S'100'
p42
S'100'
p43
tp44
tp45
Rp46
g1
(g10
g3
(F0.37638979370249726
F0.07771319793289322
F0.6136807817589577
F0.17318132464712271
tp47
tp48
Rp49
s.