(dp0
ccopy_reg
_reconstructor
p1
(cscripts.archipelago_tuples
Parameters
p2
c__builtin__
tuple
p3
(S'0'
p4
g4
g4
S'100'
p5
S'100'
p6
tp7
tp8
Rp9
g1
(cscripts.archipelago_tuples
Metrics
p10
g3
(F0.6130347448425625
F0.006518939185979747
F0.6156351791530944
F0.5619978284473398
tp11
tp12
Rp13
sg1
(g2
g3
(g4
S'8'
p14
g4
S'100'
p15
S'100'
p16
tp17
tp18
Rp19
g1
(g10
g3
(F0.43015635179153094
F0.09174916601760146
F0.6156351791530944
F0.3843648208469056
tp20
tp21
Rp22
sg1
(g2
g3
(g4
S'1'
p23
g4
S'100'
p24
S'100'
p25
tp26
tp27
Rp28
g1
(g10
g3
(F0.614688382193268
F0.00823049415499795
F0.6156351791530944
F0.5337676438653637
tp29
tp30
Rp31
sg1
(g2
g3
(g4
S'4'
p32
g4
S'100'
p33
S'100'
p34
tp35
tp36
Rp37
g1
(g10
g3
(F0.6141346362649294
F0.01379785775812153
F0.6156351791530944
F0.4768729641693811
tp38
tp39
Rp40
sg1
(g2
g3
(g4
S'2'
p41
g4
S'100'
p42
S'100'
p43
tp44
tp45
Rp46
g1
(g10
g3
(F0.6146807817589577
F0.009496134171734193
F0.6156351791530944
F0.5201954397394137
tp47
tp48
Rp49
s.