(dp0
ccopy_reg
_reconstructor
p1
(cscripts.archipelago_tuples
Parameters
p2
c__builtin__
tuple
p3
(S'8'
p4
S'4'
p5
g4
S'100'
p6
S'10'
p7
tp8
tp9
Rp10
g1
(cscripts.archipelago_tuples
Metrics
p11
g3
(F0.3830477741585234
F0.068789281760022
F0.6156351791530944
F0.19728555917481003
tp12
tp13
Rp14
sg1
(g2
g3
(g5
g5
g5
S'100'
p15
S'10'
p16
tp17
tp18
Rp19
g1
(g11
g3
(F0.3923441910966341
F0.07450350984877384
F0.6154180238870792
F0.2115092290988057
tp20
tp21
Rp22
sg1
(g2
g3
(S'1'
p23
g5
g23
S'100'
p24
S'10'
p25
tp26
tp27
Rp28
g1
(g11
g3
(F0.3874093376764387
F0.07144054675397478
F0.6156351791530944
F0.1954397394136808
tp29
tp30
Rp31
sg1
(g2
g3
(S'16'
p32
g5
S'16'
p33
S'100'
p34
S'10'
p35
tp36
tp37
Rp38
g1
(g11
g3
(F0.3891715526601521
F0.07439883531504629
F0.6156351791530944
F0.19902280130293165
tp39
tp40
Rp41
sg1
(g2
g3
(S'2'
p42
g5
g42
S'100'
p43
S'10'
p44
tp45
tp46
Rp47
g1
(g11
g3
(F0.39224538545059723
F0.07501065818362432
F0.6154180238870792
F0.19305103148751362
tp48
tp49
Rp50
s.