(dp0
ccopy_reg
_reconstructor
p1
(cscripts.archipelago_tuples
Parameters
p2
c__builtin__
tuple
p3
(S'1.00000000'
p4
S'4.00000000'
p5
S'1.000'
p6
S'100'
p7
S'10'
p8
tp9
tp10
Rp11
g1
(cscripts.archipelago_tuples
Metrics
p12
g3
(F0.00744842562432139
F0.05174891562608892
F0.4146579804560261
F0.0
tp13
tp14
Rp15
sg1
(g2
g3
(S'1.00000000'
p16
S'2.00000000'
p17
S'1.000'
p18
S'100'
p19
S'10'
p20
tp21
tp22
Rp23
g1
(g12
g3
(F0.0015428881650380022
F0.01306841994672107
F0.11574375678610208
F0.0
tp24
tp25
Rp26
sg1
(g2
g3
(S'1.00000000'
p27
S'1.00000000'
p28
S'1.000'
p29
S'100'
p30
S'10'
p31
tp32
tp33
Rp34
g1
(g12
g3
(F3.2573289902280133e-06
F3.2410014238000654e-05
F0.0003257328990228013
F0.0
tp35
tp36
Rp37
sg1
(g2
g3
(S'1.00000000'
p38
S'0.50000000'
p39
S'1.000'
p40
S'100'
p41
S'10'
p42
tp43
tp44
Rp45
g1
(g12
g3
(F0.0
F0.0
F0.0
F0.0
tp46
tp47
Rp48
sg1
(g2
g3
(S'1.00000000'
p49
S'0.25000000'
p50
S'1.000'
p51
S'100'
p52
S'10'
p53
tp54
tp55
Rp56
g1
(g12
g3
(F3.908794788273615e-05
F0.00012429175262761508
F0.00043431053203040176
F0.0
tp57
tp58
Rp59
s.