(dp0
ccopy_reg
_reconstructor
p1
(cscripts.archipelago_tuples
Parameters
p2
c__builtin__
tuple
p3
(S'1'
p4
S'0'
p5
g4
S'10'
p6
S'10'
p7
tp8
tp9
Rp10
g1
(cscripts.archipelago_tuples
Metrics
p11
g3
(F0.0022463768115942033
F0.005121190150574239
F0.01594202898550725
F0.0
tp12
tp13
Rp14
sg1
(g2
g3
(g4
S'2'
p15
g4
S'10'
p16
S'10'
p17
tp18
tp19
Rp20
g1
(g11
g3
(F0.17681159420289855
F0.08715397597325379
F0.3405797101449275
F0.051449275362318844
tp21
tp22
Rp23
sg1
(g2
g3
(g4
S'4'
p24
g4
S'10'
p25
S'10'
p26
tp27
tp28
Rp29
g1
(g11
g3
(F0.398623188405797
F0.08697841140846155
F0.5652173913043478
F0.3456521739130435
tp30
tp31
Rp32
sg1
(g2
g3
(g4
g4
g4
S'10'
p33
S'10'
p34
tp35
tp36
Rp37
g1
(g11
g3
(F0.005000000000000001
F0.007957444626118996
F0.025362318840579705
F0.0007246376811594203
tp38
tp39
Rp40
s.