(dp0
ccopy_reg
_reconstructor
p1
(cscripts.archipelago_tuples
Parameters
p2
c__builtin__
tuple
p3
(S'1'
p4
S'4'
p5
g4
S'100'
p6
S'100'
p7
tp8
tp9
Rp10
g1
(cscripts.archipelago_tuples
Metrics
p11
g3
(F0.0031270783847980993
F0.024244715598957047
F0.22719714964370546
F0.0
tp12
tp13
Rp14
sg1
(g2
g3
(g4
g4
g4
S'100'
p15
S'100'
p16
tp17
tp18
Rp19
g1
(g11
g3
(F0.0
F0.0
F0.0
F0.0
tp20
tp21
Rp22
sg1
(g2
g3
(g4
S'0'
p23
g4
S'100'
p24
S'100'
p25
tp26
tp27
Rp28
g1
(g11
g3
(F0.00011757719714964377
F1.1816952934757958e-05
F0.00011876484560570071
F0.0
tp29
tp30
Rp31
sg1
(g2
g3
(g4
S'2'
p32
g4
S'100'
p33
S'100'
p34
tp35
tp36
Rp37
g1
(g11
g3
(F1.187648456057007e-05
F9.414313898438082e-05
F0.000831353919239905
F0.0
tp38
tp39
Rp40
s.