(dp0
ccopy_reg
_reconstructor
p1
(cscripts.archipelago_tuples
Parameters
p2
c__builtin__
tuple
p3
(S'0.10000000'
p4
S'1.00000000'
p5
S'0.100'
p6
S'50'
p7
S'20'
p8
tp9
tp10
Rp11
g1
(cscripts.archipelago_tuples
Metrics
p12
g3
(F0.4219891304347826
F0.03782404028259851
F0.5198369565217391
F0.37472826086956523
tp13
tp14
Rp15
sg1
(g2
g3
(S'0.10000000'
p16
S'1.00000000'
p17
S'0.100'
p18
S'50'
p19
S'50'
p20
tp21
tp22
Rp23
g1
(g12
g3
(F0.30792391304347827
F0.0655530665951178
F0.5103260869565217
F0.22934782608695653
tp24
tp25
Rp26
sg1
(g2
g3
(S'0.10000000'
p27
S'1.00000000'
p28
S'0.100'
p29
S'50'
p30
S'2'
p31
tp32
tp33
Rp34
g1
(g12
g3
(F0.23318478260869568
F0.014087243703553715
F0.2695652173913043
F0.21467391304347827
tp35
tp36
Rp37
sg1
(g2
g3
(S'0.10000000'
p38
S'1.00000000'
p39
S'0.100'
p40
S'50'
p41
S'10'
p42
tp43
tp44
Rp45
g1
(g12
g3
(F0.3565978260869565
F0.02682324274080239
F0.4320652173913044
F0.32690217391304344
tp46
tp47
Rp48
sg1
(g2
g3
(S'0.10000000'
p49
S'1.00000000'
p50
S'0.100'
p51
S'50'
p52
S'40'
p53
tp54
tp55
Rp56
g1
(g12
g3
(F0.41060869565217395
F0.045682709726615936
F0.5146739130434782
F0.33994565217391304
tp57
tp58
Rp59
sg1
(g2
g3
(S'0.10000000'
p60
S'1.00000000'
p61
S'0.100'
p62
S'50'
p63
S'30'
p64
tp65
tp66
Rp67
g1
(g12
g3
(F0.3529619565217391
F0.045357270926830895
F0.5380434782608696
F0.29809782608695656
tp68
tp69
Rp70
s.