(dp0
ccopy_reg
_reconstructor
p1
(cscripts.archipelago_tuples
Parameters
p2
c__builtin__
tuple
p3
(S'0.30000000'
p4
S'0.50000000'
p5
S'0.300'
p6
S'10'
p7
S'6'
p8
tp9
tp10
Rp11
g1
(cscripts.archipelago_tuples
Metrics
p12
g3
(F0.36385064935064937
F0.11372680481635966
F0.5543506493506494
F0.2676623376623376
tp13
tp14
Rp15
sg1
(g2
g3
(S'0.30000000'
p16
S'0.50000000'
p17
S'0.300'
p18
S'10'
p19
S'5'
p20
tp21
tp22
Rp23
g1
(g12
g3
(F0.3653376623376623
F0.1360550493983157
F0.5524025974025973
F0.21155844155844156
tp24
tp25
Rp26
sg1
(g2
g3
(S'0.30000000'
p27
S'0.50000000'
p28
S'0.300'
p29
S'10'
p30
S'9'
p31
tp32
tp33
Rp34
g1
(g12
g3
(F0.33462662337662336
F0.13643935090240483
F0.5560389610389611
F0.22305194805194808
tp35
tp36
Rp37
sg1
(g2
g3
(S'0.30000000'
p38
S'0.50000000'
p39
S'0.300'
p40
S'10'
p41
S'4'
p42
tp43
tp44
Rp45
g1
(g12
g3
(F0.3668798701298701
F0.1104701945530054
F0.5560064935064934
F0.2733116883116883
tp46
tp47
Rp48
sg1
(g2
g3
(S'0.30000000'
p49
S'0.50000000'
p50
S'0.300'
p51
S'10'
p52
S'3'
p53
tp54
tp55
Rp56
g1
(g12
g3
(F0.31081493506493507
F0.08603909600165927
F0.42564935064935067
F0.2031168831168831
tp57
tp58
Rp59
sg1
(g2
g3
(S'0.30000000'
p60
S'0.50000000'
p61
S'0.300'
p62
S'10'
p63
S'8'
p64
tp65
tp66
Rp67
g1
(g12
g3
(F0.32843831168831167
F0.14948955727930285
F0.5523701298701298
F0.18084415584415586
tp68
tp69
Rp70
sg1
(g2
g3
(S'0.30000000'
p71
S'0.50000000'
p72
S'0.300'
p73
S'10'
p74
S'7'
p75
tp76
tp77
Rp78
g1
(g12
g3
(F0.3103506493506493
F0.11941715869134013
F0.5308441558441559
F0.2102272727272727
tp79
tp80
Rp81
sg1
(g2
g3
(S'0.30000000'
p82
S'0.50000000'
p83
S'0.300'
p84
S'10'
p85
S'2'
p86
tp87
tp88
Rp89
g1
(g12
g3
(F0.300538961038961
F0.07315324050592915
F0.4095454545454545
F0.2335714285714286
tp90
tp91
Rp92
sg1
(g2
g3
(S'0.30000000'
p93
S'0.50000000'
p94
S'0.300'
p95
S'10'
p96
S'10'
p97
tp98
tp99
Rp100
g1
(g12
g3
(F0.3461006493506494
F0.14652108139437905
F0.5524025974025972
F0.21396103896103896
tp101
tp102
Rp103
s.