(dp0
ccopy_reg
_reconstructor
p1
(cscripts.archipelago_tuples
Parameters
p2
c__builtin__
tuple
p3
(S'0.50000000'
p4
S'0.12500000'
p5
S'0.500'
p6
S'2'
p7
g7
tp8
tp9
Rp10
g1
(cscripts.archipelago_tuples
Metrics
p11
g3
(F0.17663961038961037
F0.033490259740259744
F0.2101298701298701
F0.14314935064935067
tp12
tp13
Rp14
sg1
(g2
g3
(S'0.50000000'
p15
S'0.12500000'
p16
S'0.500'
p17
S'10'
p18
g7
tp19
tp20
Rp21
g1
(g11
g3
(F0.1780162337662338
F0.058981919100635896
F0.31685064935064944
F0.12133116883116882
tp22
tp23
Rp24
sg1
(g2
g3
(S'0.50000000'
p25
S'0.12500000'
p26
S'0.500'
p27
S'6'
p28
g7
tp29
tp30
Rp31
g1
(g11
g3
(F0.16841991341991344
F0.0494947278793803
F0.26256493506493506
F0.11775974025974026
tp32
tp33
Rp34
sg1
(g2
g3
(S'0.50000000'
p35
S'0.12500000'
p36
S'0.500'
p37
S'8'
p38
g7
tp39
tp40
Rp41
g1
(g11
g3
(F0.1542857142857143
F0.02477128757286966
F0.2030194805194805
F0.12506493506493507
tp42
tp43
Rp44
sg1
(g2
g3
(S'0.50000000'
p45
S'0.12500000'
p46
S'0.500'
p47
S'4'
p48
g7
tp49
tp50
Rp51
g1
(g11
g3
(F0.17160714285714285
F0.04042808546395381
F0.23188311688311689
F0.12857142857142856
tp52
tp53
Rp54
s.