(dp0
ccopy_reg
_reconstructor
p1
(cscripts.archipelago_tuples
Parameters
p2
c__builtin__
tuple
p3
(S'0.10000000'
p4
S'4.00000000'
p5
S'0.100'
p6
S'2'
p7
g7
S'500'
p8
tp9
tp10
Rp11
g1
(cscripts.archipelago_tuples
Metrics
p12
g3
(cnumpy.core.multiarray
scalar
p13
(cnumpy
dtype
p14
(S'f8'
p15
I0
I1
tp16
Rp17
(I3
S'<'
p18
NNNI-1
I-1
I0
tp19
bS'\x04\xf8\x91q\x9d\xcb\xc4?'
p20
tp21
Rp22
g13
(g17
S'\xf4\xb0z \x9d\x14\x81?'
p23
tp24
Rp25
F0.0008292194698396691
F0.16329305657291532
tp26
tp27
Rp28
sg1
(g2
g3
(S'0.10000000'
p29
S'4.00000000'
p30
S'0.100'
p31
S'10'
p32
g7
S'500'
p33
tp34
tp35
Rp36
g1
(g12
g3
(g13
(g17
S'\xf6*\xca;\xf8\xc1\xc4?'
p37
tp38
Rp39
g13
(g17
S'%\xba\xba}w}z?'
p40
tp41
Rp42
F0.0015544244882071674
F0.16467555422114835
tp43
tp44
Rp45
sg1
(g2
g3
(S'0.10000000'
p46
S'4.00000000'
p47
S'0.100'
p48
S'3'
p49
g7
S'500'
p50
tp51
tp52
Rp53
g1
(g12
g3
(g13
(g17
S'4\x0e%\xd9\x05>\xc5?'
p54
tp55
Rp56
g13
(g17
S'&f(~\xd7Qv?'
p57
tp58
Rp59
F0.001462848927048398
F0.16756252267842692
tp60
tp61
Rp62
sg1
(g2
g3
(S'0.10000000'
p63
S'4.00000000'
p64
S'0.100'
p65
S'4'
p66
g7
S'500'
p67
tp68
tp69
Rp70
g1
(g12
g3
(g13
(g17
S'-\xa6\xad\xd5\x01\t\xc5?'
p71
tp72
Rp73
g13
(g17
S'\xa1\xbf0S\xe7\xa9v?'
p74
tp75
Rp76
F0.0032038226277940353
F0.16863702748719636
tp77
tp78
Rp79
sg1
(g2
g3
(S'0.10000000'
p80
S'4.00000000'
p81
S'0.100'
p82
S'8'
p83
g7
S'500'
p84
tp85
tp86
Rp87
g1
(g12
g3
(g13
(g17
S'\xd3"kE\x1b\x17\xc5?'
p88
tp89
Rp90
g13
(g17
S'c\x02\xf9\x0b7\xb8}?'
p91
tp92
Rp93
F0.002153619477897274
F0.1688523358119612
tp94
tp95
Rp96
sg1
(g2
g3
(S'0.10000000'
p97
S'4.00000000'
p98
S'0.100'
p99
S'5'
p100
g7
S'500'
p101
tp102
tp103
Rp104
g1
(g12
g3
(g13
(g17
S'r\x15;\x1c2\xc7\xc4?'
p105
tp106
Rp107
g13
(g17
S'\xdd\x8f<\xf1\xc9\x19r?'
p108
tp109
Rp110
F0.0016283776789263707
F0.1643682120309385
tp111
tp112
Rp113
sg1
(g2
g3
(S'0.10000000'
p114
S'4.00000000'
p115
S'0.100'
p116
S'6'
p117
g7
S'500'
p118
tp119
tp120
Rp121
g1
(g12
g3
(g13
(g17
S'\xa6\x99C\xcb_\xf2\xc4?'
p122
tp123
Rp124
g13
(g17
S'\xf7\x87U\xd3\xfc\xe8v?'
p125
tp126
Rp127
F0.0025140172530239363
F0.1675317252804204
tp128
tp129
Rp130
sg1
(g2
g3
(S'0.10000000'
p131
S'4.00000000'
p132
S'0.100'
p133
S'9'
p134
g7
S'500'
p135
tp136
tp137
Rp138
g1
(g12
g3
(g13
(g17
S'{ZX\xa3\xff\xcf\xc4?'
p139
tp140
Rp141
g13
(g17
S'_\xe8\xc1IK\xf7\x7f?'
p142
tp143
Rp144
F0.002185059854591213
F0.1668256293947114
tp145
tp146
Rp147
sg1
(g2
g3
(S'0.10000000'
p148
S'4.00000000'
p149
S'0.100'
p150
S'7'
p151
g7
S'500'
p152
tp153
tp154
Rp155
g1
(g12
g3
(g13
(g17
S'\x14G\xb7\xe8J\xdc\xc4?'
p156
tp157
Rp158
g13
(g17
S' r\x91\xe7\xf5\xc3|?'
p159
tp160
Rp161
F0.00212208682852891
F0.16630281857484802
tp162
tp163
Rp164
s.