(dp0
ccopy_reg
_reconstructor
p1
(cscripts.archipelago_tuples
Parameters
p2
c__builtin__
tuple
p3
(S'1.90000000'
p4
S'0.50000000'
p5
S'1.900'
p6
S'50'
p7
S'50'
p8
tp9
tp10
Rp11
g1
(cscripts.archipelago_tuples
Metrics
p12
g3
(F0.2694130434782609
F0.0596651666808745
F0.39375
F0.15516304347826088
tp13
tp14
Rp15
sg1
(g2
g3
(S'0.10000000'
p16
S'0.50000000'
p17
S'0.100'
p18
S'50'
p19
S'50'
p20
tp21
tp22
Rp23
g1
(g12
g3
(F0.3396358695652174
F0.03974378976811392
F0.43885869565217395
F0.21467391304347822
tp24
tp25
Rp26
sg1
(g2
g3
(S'1.60000000'
p27
S'0.50000000'
p28
S'1.600'
p29
S'50'
p30
S'50'
p31
tp32
tp33
Rp34
g1
(g12
g3
(F0.2645978260869565
F0.04762846637781264
F0.3663043478260869
F0.15978260869565214
tp35
tp36
Rp37
sg1
(g2
g3
(S'1.00000000'
p38
S'0.50000000'
p39
S'1.000'
p40
S'50'
p41
S'50'
p42
tp43
tp44
Rp45
g1
(g12
g3
(F0.26335869565217396
F0.06219212917577992
F0.38016304347826085
F0.152445652173913
tp46
tp47
Rp48
sg1
(g2
g3
(S'0.40000000'
p49
S'0.50000000'
p50
S'0.400'
p51
S'50'
p52
S'50'
p53
tp54
tp55
Rp56
g1
(g12
g3
(F0.22697282608695651
F0.044782499922495986
F0.3421195652173913
F0.1453804347826087
tp57
tp58
Rp59
sg1
(g2
g3
(S'0.70000000'
p60
S'0.50000000'
p61
S'0.700'
p62
S'50'
p63
S'50'
p64
tp65
tp66
Rp67
g1
(g12
g3
(F0.24571195652173908
F0.04290832009180864
F0.3483695652173913
F0.13722826086956524
tp68
tp69
Rp70
sg1
(g2
g3
(S'2.20000000'
p71
S'0.50000000'
p72
S'2.200'
p73
S'50'
p74
S'50'
p75
tp76
tp77
Rp78
g1
(g12
g3
(F0.2748315217391304
F0.055460610640443365
F0.3845108695652174
F0.1513586956521739
tp79
tp80
Rp81
sg1
(g2
g3
(S'1.30000000'
p82
S'0.50000000'
p83
S'1.300'
p84
S'50'
p85
S'50'
p86
tp87
tp88
Rp89
g1
(g12
g3
(F0.2635163043478261
F0.05347981523369881
F0.3752717391304347
F0.1532608695652174
tp90
tp91
Rp92
s.