(dp0
ccopy_reg
_reconstructor
p1
(cscripts.archipelago_tuples
Parameters
p2
c__builtin__
tuple
p3
(S'0.75000000'
p4
S'0.00390625'
p5
S'0.750'
p6
S'100'
p7
S'50'
p8
tp9
tp10
Rp11
g1
(cscripts.archipelago_tuples
Metrics
p12
g3
(F0.31915760869565213
F0.12211714177688612
F0.5277173913043478
F0.14130434782608697
tp13
tp14
Rp15
sg1
(g2
g3
(S'0.75000000'
p16
S'0.00390625'
p17
S'0.750'
p18
S'100'
p19
S'15'
p20
tp21
tp22
Rp23
g1
(g12
g3
(F0.3789211956521739
F0.15983002292248916
F0.6076086956521739
F0.14755434782608695
tp24
tp25
Rp26
sg1
(g2
g3
(S'0.75000000'
p27
S'0.00390625'
p28
S'0.750'
p29
S'100'
p30
S'85'
p31
tp32
tp33
Rp34
g1
(g12
g3
(F0.3398179347826087
F0.07681874686116483
F0.4630434782608696
F0.14782608695652172
tp35
tp36
Rp37
sg1
(g2
g3
(S'0.75000000'
p38
S'0.00390625'
p39
S'0.750'
p40
S'100'
p41
S'35'
p42
tp43
tp44
Rp45
g1
(g12
g3
(F0.27494565217391304
F0.10066288635385116
F0.5233695652173913
F0.14646739130434783
tp46
tp47
Rp48
sg1
(g2
g3
(S'0.75000000'
p49
S'0.00390625'
p50
S'0.750'
p51
S'100'
p52
S'55'
p53
tp54
tp55
Rp56
g1
(g12
g3
(F0.30061141304347827
F0.10370678853437199
F0.46766304347826093
F0.14972826086956523
tp57
tp58
Rp59
sg1
(g2
g3
(S'0.75000000'
p60
S'0.00390625'
p61
S'0.750'
p62
S'100'
p63
S'20'
p64
tp65
tp66
Rp67
g1
(g12
g3
(F0.3814103260869566
F0.1400461749698036
F0.5673913043478261
F0.14646739130434785
tp68
tp69
Rp70
sg1
(g2
g3
(S'0.75000000'
p71
S'0.00390625'
p72
S'0.750'
p73
S'100'
p74
S'65'
p75
tp76
tp77
Rp78
g1
(g12
g3
(F0.3146983695652174
F0.09970922314078681
F0.45978260869565224
F0.13831521739130434
tp79
tp80
Rp81
sg1
(g2
g3
(S'0.75000000'
p82
S'0.00390625'
p83
S'0.750'
p84
S'100'
p85
S'80'
p86
tp87
tp88
Rp89
g1
(g12
g3
(F0.3643913043478261
F0.09553208303346145
F0.5105978260869566
F0.15543478260869564
tp90
tp91
Rp92
sg1
(g2
g3
(S'0.75000000'
p93
S'0.00390625'
p94
S'0.750'
p95
S'100'
p96
S'90'
p97
tp98
tp99
Rp100
g1
(g12
g3
(F0.38892934782608685
F0.08845493131283935
F0.5040760869565217
F0.14728260869565218
tp101
tp102
Rp103
sg1
(g2
g3
(S'0.75000000'
p104
S'0.00390625'
p105
S'0.750'
p106
S'100'
p107
S'60'
p108
tp109
tp110
Rp111
g1
(g12
g3
(F0.28277989130434783
F0.08307418011888919
F0.48559782608695656
F0.14429347826086958
tp112
tp113
Rp114
sg1
(g2
g3
(S'0.75000000'
p115
S'0.00390625'
p116
S'0.750'
p117
S'100'
p118
S'30'
p119
tp120
tp121
Rp122
g1
(g12
g3
(F0.3513260869565217
F0.13663265619857828
F0.5519021739130434
F0.14320652173913045
tp123
tp124
Rp125
sg1
(g2
g3
(S'0.75000000'
p126
S'0.00390625'
p127
S'0.750'
p128
S'100'
p129
S'5'
p130
tp131
tp132
Rp133
g1
(g12
g3
(F0.3739565217391305
F0.15896085484664896
F0.6127717391304348
F0.15869565217391304
tp134
tp135
Rp136
sg1
(g2
g3
(S'0.75000000'
p137
S'0.00390625'
p138
S'0.750'
p139
S'100'
p140
S'10'
p141
tp142
tp143
Rp144
g1
(g12
g3
(F0.3900135869565218
F0.15822409446457542
F0.6067934782608695
F0.1502717391304348
tp145
tp146
Rp147
sg1
(g2
g3
(S'0.75000000'
p148
S'0.00390625'
p149
S'0.750'
p150
S'100'
p151
S'45'
p152
tp153
tp154
Rp155
g1
(g12
g3
(F0.2947010869565217
F0.10798866349424048
F0.4804347826086957
F0.1342391304347826
tp156
tp157
Rp158
sg1
(g2
g3
(S'0.75000000'
p159
S'0.00390625'
p160
S'0.750'
p161
S'100'
p162
S'95'
p163
tp164
tp165
Rp166
g1
(g12
g3
(F0.3540353260869565
F0.07301357394096605
F0.47092391304347825
F0.1532608695652174
tp167
tp168
Rp169
sg1
(g2
g3
(S'0.75000000'
p170
S'0.00390625'
p171
S'0.750'
p172
S'100'
p173
S'25'
p174
tp175
tp176
Rp177
g1
(g12
g3
(F0.34633152173913045
F0.14110101964217142
F0.5703804347826087
F0.14673913043478262
tp178
tp179
Rp180
sg1
(g2
g3
(S'0.75000000'
p181
S'0.00390625'
p182
S'0.750'
p183
S'100'
p184
S'70'
p185
tp186
tp187
Rp188
g1
(g12
g3
(F0.34553532608695653
F0.10909061073181821
F0.4989130434782608
F0.15353260869565216
tp189
tp190
Rp191
sg1
(g2
g3
(S'0.75000000'
p192
S'0.00390625'
p193
S'0.750'
p194
S'100'
p195
S'40'
p196
tp197
tp198
Rp199
g1
(g12
g3
(F0.25096739130434786
F0.07527089607426221
F0.43233695652173915
F0.13994565217391308
tp200
tp201
Rp202
sg1
(g2
g3
(S'0.75000000'
p203
S'0.00390625'
p204
S'0.750'
p205
S'100'
p206
S'75'
p207
tp208
tp209
Rp210
g1
(g12
g3
(F0.3324266304347826
F0.09567233277971487
F0.46630434782608693
F0.14782608695652172
tp211
tp212
Rp213
s.