(dp0
ccopy_reg
_reconstructor
p1
(cscripts.archipelago_tuples
Parameters
p2
c__builtin__
tuple
p3
(S'0.10000000'
p4
S'0.06250000'
p5
S'0.100'
p6
S'10'
p7
S'10'
p8
S'331'
p9
tp10
tp11
Rp12
g1
(cscripts.archipelago_tuples
Metrics
p13
g3
(cnumpy.core.multiarray
scalar
p14
(cnumpy
dtype
p15
(S'f8'
p16
I0
I1
tp17
Rp18
(I3
S'<'
p19
NNNI-1
I-1
I0
tp20
bS'I\xa4\xb1Os\xc3\xc5?'
p21
tp22
Rp23
g14
(g18
S'\x97\x1b\xd0!\x01\xc6\x92?'
p24
tp25
Rp26
F0.015862221663263586
F0.19402173913043477
tp27
tp28
Rp29
sg1
(g2
g3
(S'0.10000000'
p30
S'1.00000000'
p31
S'0.100'
p32
S'10'
p33
S'10'
p34
S'331'
p35
tp36
tp37
Rp38
g1
(g13
g3
(g14
(g18
S'\x164\xb5W\x05\x0c\xcd?'
p39
tp40
Rp41
g14
(g18
S'}\xe2\xab\x87G\xcc\x9a?'
p42
tp43
Rp44
F0.027430707939395737
F0.26141304347826083
tp45
tp46
Rp47
sg1
(g2
g3
(S'0.10000000'
p48
S'0.25000000'
p49
S'0.100'
p50
S'10'
p51
S'10'
p52
S'331'
p53
tp54
tp55
Rp56
g1
(g13
g3
(g14
(g18
S'\xfey\x92\x89u\x08\xc7?'
p57
tp58
Rp59
g14
(g18
S'\x84\xefj\xa1\xdc\\\x8c?'
p60
tp61
Rp62
F0.013421171039846747
F0.19836956521739132
tp63
tp64
Rp65
sg1
(g2
g3
(S'0.10000000'
p66
S'0.50000000'
p67
S'0.100'
p68
S'10'
p69
S'10'
p70
S'331'
p71
tp72
tp73
Rp74
g1
(g13
g3
(g14
(g18
S'\x80a\x9b\x9d\xe2=\xc9?'
p75
tp76
Rp77
g14
(g18
S'\x9b\x91{\x90\x03\r\x98?'
p78
tp79
Rp80
F0.02645958078494095
F0.2394021739130435
tp81
tp82
Rp83
sg1
(g2
g3
(S'0.10000000'
p84
S'0.12500000'
p85
S'0.100'
p86
S'10'
p87
S'10'
p88
S'331'
p89
tp90
tp91
Rp92
g1
(g13
g3
(g14
(g18
S'Kg\xe8\x8a8?\xc6?'
p93
tp94
Rp95
g14
(g18
S'a\x8c\x12$\xd9!\x96?'
p96
tp97
Rp98
F0.020797842560949457
F0.20489130434782607
tp99
tp100
Rp101
sg1
(g2
g3
(S'0.10000000'
p102
S'0.03125000'
p103
S'0.100'
p104
S'10'
p105
S'10'
p106
S'331'
p107
tp108
tp109
Rp110
g1
(g13
g3
(g14
(g18
S'\xd6^\x150l\xb3\xc5?'
p111
tp112
Rp113
g14
(g18
S'\xf8\xb5\xeb<j\xda\x91?'
p114
tp115
Rp116
F0.01763715922021066
F0.20407608695652177
tp117
tp118
Rp119
sg1
(g2
g3
(S'0.10000000'
p120
S'0.01562500'
p121
S'0.100'
p122
S'10'
p123
S'10'
p124
S'331'
p125
tp126
tp127
Rp128
g1
(g13
g3
(g14
(g18
S'>K\xe9\x0c]\x11\xc5?'
p129
tp130
Rp131
g14
(g18
S"\x9a'\x1a\xc5(P\x88?"
p132
tp133
Rp134
F0.012815573753093787
F0.18586956521739126
tp135
tp136
Rp137
s.