(dp0
ccopy_reg
_reconstructor
p1
(cscripts.archipelago_tuples
Parameters
p2
c__builtin__
tuple
p3
(S'0.30000000'
p4
S'0.50000000'
p5
S'0.300'
p6
S'5'
p7
S'4'
p8
tp9
tp10
Rp11
g1
(cscripts.archipelago_tuples
Metrics
p12
g3
(F0.2770649350649351
F0.042795590789817206
F0.3586363636363636
F0.2499025974025974
tp13
tp14
Rp15
sg1
(g2
g3
(S'0.30000000'
p16
S'0.50000000'
p17
S'0.300'
p18
g7
g7
tp19
tp20
Rp21
g1
(g12
g3
(F0.2640974025974026
F0.02653091485676441
F0.30792207792207793
F0.2409090909090909
tp22
tp23
Rp24
sg1
(g2
g3
(S'0.30000000'
p25
S'0.50000000'
p26
S'0.300'
p27
g7
S'2'
p28
tp29
tp30
Rp31
g1
(g12
g3
(F0.3270129870129871
F0.11550123818040334
F0.48012987012987
F0.21948051948051947
tp32
tp33
Rp34
sg1
(g2
g3
(S'0.30000000'
p35
S'0.50000000'
p36
S'0.300'
p37
g7
S'3'
p38
tp39
tp40
Rp41
g1
(g12
g3
(F0.3585714285714286
F0.09938356124296582
F0.5505844155844155
F0.28974025974025974
tp42
tp43
Rp44
s.