(dp0
ccopy_reg
_reconstructor
p1
(cscripts.archipelago_tuples
Parameters
p2
c__builtin__
tuple
p3
(S'0.010'
p4
S'10.000'
p5
S'0.003'
p6
S'100'
p7
S'10'
p8
tp9
tp10
Rp11
g1
(cscripts.archipelago_tuples
Metrics
p12
g3
(F0.29669099378881986
F0.07154109161450951
F0.5062111801242235
F0.15326086956521737
tp13
tp14
Rp15
sg1
(g2
g3
(S'0.000'
p16
S'10.000'
p17
S'0.000'
p18
S'100'
p19
S'10'
p20
tp21
tp22
Rp23
g1
(g12
g3
(F0.398389751552795
F0.08361575744337714
F0.6027950310559007
F0.18850931677018629
tp24
tp25
Rp26
sg1
(g2
g3
(S'100.000'
p27
S'10.000'
p28
S'25.000'
p29
S'100'
p30
S'10'
p31
tp32
tp33
Rp34
g1
(g12
g3
(F0.11375000000000002
F0.018931023707665966
F0.22903726708074537
F0.08959627329192546
tp35
tp36
Rp37
sg1
(g2
g3
(S'0.001'
p38
S'10.000'
p39
S'0.000'
p40
S'100'
p41
S'10'
p42
tp43
tp44
Rp45
g1
(g12
g3
(F0.3748540372670808
F0.08738720076065057
F0.5832298136645963
F0.17189440993788818
tp46
tp47
Rp48
sg1
(g2
g3
(S'0.100'
p49
S'10.000'
p50
S'0.025'
p51
S'100'
p52
S'10'
p53
tp54
tp55
Rp56
g1
(g12
g3
(F0.12872670807453415
F0.023035382744386657
F0.2333850931677018
F0.09472049689440994
tp57
tp58
Rp59
sg1
(g2
g3
(S'10.000'
p60
S'10.000'
p61
S'2.500'
p62
S'100'
p63
S'10'
p64
tp65
tp66
Rp67
g1
(g12
g3
(F0.10992391304347826
F0.015258132256188068
F0.19006211180124227
F0.08540372670807453
tp68
tp69
Rp70
sg1
(g2
g3
(S'1.000'
p71
S'10.000'
p72
S'0.250'
p73
S'100'
p74
S'10'
p75
tp76
tp77
Rp78
g1
(g12
g3
(F0.10912267080745344
F0.01964874807289126
F0.23385093167701862
F0.0843167701863354
tp79
tp80
Rp81
s.