(dp0
ccopy_reg
_reconstructor
p1
(cscripts.archipelago_tuples
Parameters
p2
c__builtin__
tuple
p3
(S'0.10000000'
p4
S'4.00000000'
p5
S'0.006'
p6
S'10'
p7
S'5'
p8
S'300'
p9
tp10
tp11
Rp12
g1
(cscripts.archipelago_tuples
Metrics
p13
g3
(cnumpy.core.multiarray
scalar
p14
(cnumpy
dtype
p15
(S'f8'
p16
I0
I1
tp17
Rp18
(I3
S'<'
p19
NNNI-1
I-1
I0
tp20
bS'\xa9\xa3I\x0eL\x0f\xc7?'
p21
tp22
Rp23
g14
(g18
S'\x1aj,\xe3\xe8\xe3\x92?'
p24
tp25
Rp26
g14
(g18
S'\x00\x00\x00\x00\x00\x00\x00\x00'
p27
tp28
Rp29
g14
(g18
S'\x00\x00\x00\x00\x00\x00\x00\x00'
p30
tp31
Rp32
F0.18015433023108798
F0.18015433023108798
tp33
tp34
Rp35
sg1
(g2
g3
(S'0.10000000'
p36
S'4.00000000'
p37
S'0.013'
p38
S'10'
p39
g8
S'300'
p40
tp41
tp42
Rp43
g1
(g13
g3
(g14
(g18
S'j.\xb0\r,\xbf\xc5?'
p44
tp45
Rp46
g14
(g18
S'UX\x1a=\xfe\xc2p?'
p47
tp48
Rp49
g14
(g18
S'\x00\x00\x00\x00\x00\x00\x00\x00'
p50
tp51
Rp52
g14
(g18
S'\x00\x00\x00\x00\x00\x00\x00\x00'
p53
tp54
Rp55
F0.1698966090046839
F0.1698966090046839
tp56
tp57
Rp58
sg1
(g2
g3
(S'0.10000000'
p59
S'4.00000000'
p60
S'0.050'
p61
S'10'
p62
g8
S'300'
p63
tp64
tp65
Rp66
g1
(g13
g3
(g14
(g18
S'0?~\x93S9\xc5?'
p67
tp68
Rp69
g14
(g18
S'^\xbd$st\x1d\x82?'
p70
tp71
Rp72
g14
(g18
S'\x00\x00\x00\x00\x00\x00\x00\x00'
p73
tp74
Rp75
g14
(g18
S'\x00\x00\x00\x00\x00\x00\x00\x00'
p76
tp77
Rp78
F0.1658119650060086
F0.1658119650060086
tp79
tp80
Rp81
sg1
(g2
g3
(S'0.10000000'
p82
S'4.00000000'
p83
S'0.025'
p84
S'10'
p85
g8
S'300'
p86
tp87
tp88
Rp89
g1
(g13
g3
(g14
(g18
S'\xeb]\x81/>.\xc5?'
p90
tp91
Rp92
g14
(g18
S'\xee\x84j\xb3\xbb\x99\x81?'
p93
tp94
Rp95
g14
(g18
S'\x00\x00\x00\x00\x00\x00\x00\x00'
p96
tp97
Rp98
g14
(g18
S'\x00\x00\x00\x00\x00\x00\x00\x00'
p99
tp100
Rp101
F0.1654737216910996
F0.1654737216910996
tp102
tp103
Rp104
sg1
(g2
g3
(S'0.10000000'
p105
S'4.00000000'
p106
S'0.100'
p107
S'10'
p108
g8
S'300'
p109
tp110
tp111
Rp112
g1
(g13
g3
(g14
(g18
S'\x998\xcd\xaa\xf6\x9f\xc5?'
p113
tp114
Rp115
g14
(g18
S'+cn\x81fd\x80?'
p116
tp117
Rp118
g14
(g18
S'\x00\x00\x00\x00\x00\x00\x00\x00'
p119
tp120
Rp121
g14
(g18
S'\x00\x00\x00\x00\x00\x00\x00\x00'
p122
tp123
Rp124
F0.1689441999428183
F0.1689441999428183
tp125
tp126
Rp127
s.