(dp0
ccopy_reg
_reconstructor
p1
(cscripts.archipelago_tuples
Parameters
p2
c__builtin__
tuple
p3
(S'0.30000000'
p4
S'0.25000000'
p5
S'0.300'
p6
S'30'
p7
S'5'
p8
S'40'
p9
tp10
tp11
Rp12
g1
(cscripts.archipelago_tuples
Metrics
p13
g3
(F0.3398822463768116
F0.04093476017576876
F0.4328804347826087
F0.2926630434782609
tp14
tp15
Rp16
sg1
(g2
g3
(S'0.30000000'
p17
S'0.25000000'
p18
S'0.300'
p19
S'30'
p20
g8
S'30'
p21
tp22
tp23
Rp24
g1
(g13
g3
(F0.39806159420289855
F0.032153699763132496
F0.4657608695652174
F0.3432065217391304
tp25
tp26
Rp27
sg1
(g2
g3
(S'0.30000000'
p28
S'0.25000000'
p29
S'0.300'
p30
S'30'
p31
g8
S'90'
p32
tp33
tp34
Rp35
g1
(g13
g3
(F0.18195652173913043
F0.01874373902713448
F0.22554347826086957
F0.16168478260869565
tp36
tp37
Rp38
sg1
(g2
g3
(S'0.30000000'
p39
S'0.25000000'
p40
S'0.300'
p41
S'30'
p42
g8
S'100'
p43
tp44
tp45
Rp46
g1
(g13
g3
(F0.16359601449275363
F0.018006560914258674
F0.20489130434782607
F0.1418478260869565
tp47
tp48
Rp49
sg1
(g2
g3
(S'0.30000000'
p50
S'0.25000000'
p51
S'0.300'
p52
S'30'
p53
g8
S'20'
p54
tp55
tp56
Rp57
g1
(g13
g3
(F0.4491304347826087
F0.049245950808307244
F0.5442934782608695
F0.38505434782608694
tp58
tp59
Rp60
sg1
(g2
g3
(S'0.30000000'
p61
S'0.25000000'
p62
S'0.300'
p63
S'30'
p64
g8
S'80'
p65
tp66
tp67
Rp68
g1
(g13
g3
(F0.24663043478260865
F0.021680526141300855
F0.2940217391304348
F0.22146739130434784
tp69
tp70
Rp71
sg1
(g2
g3
(S'0.30000000'
p72
S'0.25000000'
p73
S'0.300'
p74
S'30'
p75
g8
S'10'
p76
tp77
tp78
Rp79
g1
(g13
g3
(F0.4725815217391305
F0.03644531221595419
F0.5195652173913043
F0.3790760869565217
tp80
tp81
Rp82
sg1
(g2
g3
(S'0.30000000'
p83
S'0.25000000'
p84
S'0.300'
p85
S'30'
p86
g8
S'70'
p87
tp88
tp89
Rp90
g1
(g13
g3
(F0.25403079710144927
F0.026458817961001857
F0.32771739130434785
F0.22989130434782612
tp91
tp92
Rp93
sg1
(g2
g3
(S'0.30000000'
p94
S'0.25000000'
p95
S'0.300'
p96
S'30'
p97
g8
S'60'
p98
tp99
tp100
Rp101
g1
(g13
g3
(F0.23503623188405798
F0.032211032322323016
F0.3081521739130435
F0.19945652173913045
tp102
tp103
Rp104
sg1
(g2
g3
(S'0.30000000'
p105
S'0.25000000'
p106
S'0.300'
p107
S'30'
p108
g8
S'50'
p109
tp110
tp111
Rp112
g1
(g13
g3
(F0.33196557971014495
F0.02784117395617408
F0.3869565217391305
F0.2967391304347826
tp113
tp114
Rp115
s.