(dp0
ccopy_reg
_reconstructor
p1
(cscripts.archipelago_tuples
Parameters
p2
c__builtin__
tuple
p3
(S'1024.00000000'
p4
S'0.00000000'
p5
S'1024.000'
p6
S'50'
p7
S'5'
p8
S'586'
p9
tp10
tp11
Rp12
g1
(cscripts.archipelago_tuples
Metrics
p13
g3
(F0.2408095698623792
F0.0
F0.2408095698623792
F0.2408095698623792
tp14
tp15
Rp16
s.