(dp0
ccopy_reg
_reconstructor
p1
(cscripts.archipelago_tuples
Parameters
p2
c__builtin__
tuple
p3
(S'0.01000000'
p4
S'0.06250000'
p5
S'0.010'
p6
S'10'
p7
S'5'
p8
tp9
tp10
Rp11
g1
(cscripts.archipelago_tuples
Metrics
p12
g3
(F0.2010194805194805
F0.0749065296762057
F0.2974350649350649
F0.11227272727272727
tp13
tp14
Rp15
sg1
(g2
g3
(S'0.01000000'
p16
S'0.50000000'
p17
S'0.010'
p18
S'10'
p19
g8
tp20
tp21
Rp22
g1
(g12
g3
(F0.2587175324675325
F0.1128724354809721
F0.44376623376623386
F0.13418831168831172
tp23
tp24
Rp25
sg1
(g2
g3
(S'0.01000000'
p26
S'4.00000000'
p27
S'0.010'
p28
S'10'
p29
g8
tp30
tp31
Rp32
g1
(g12
g3
(F0.49755844155844153
F0.07480368382024208
F0.572564935064935
F0.4041233766233766
tp33
tp34
Rp35
sg1
(g2
g3
(S'0.01000000'
p36
S'2.00000000'
p37
S'0.010'
p38
S'10'
p39
g8
tp40
tp41
Rp42
g1
(g12
g3
(F0.4722370129870129
F0.08775531784543526
F0.5888961038961039
F0.3422727272727272
tp43
tp44
Rp45
sg1
(g2
g3
(S'0.01000000'
p46
S'0.01562500'
p47
S'0.010'
p48
S'10'
p49
g8
tp50
tp51
Rp52
g1
(g12
g3
(F0.22489285714285714
F0.10450256907225379
F0.3640909090909091
F0.11425324675324675
tp53
tp54
Rp55
sg1
(g2
g3
(S'0.01000000'
p56
S'0.25000000'
p57
S'0.010'
p58
S'10'
p59
g8
tp60
tp61
Rp62
g1
(g12
g3
(F0.236987012987013
F0.09996590632494114
F0.38954545454545453
F0.13230519480519481
tp63
tp64
Rp65
sg1
(g2
g3
(S'0.01000000'
p66
S'0.12500000'
p67
S'0.010'
p68
S'10'
p69
g8
tp70
tp71
Rp72
g1
(g12
g3
(F0.2328863636363636
F0.09934610365014396
F0.3658766233766234
F0.11772727272727275
tp73
tp74
Rp75
sg1
(g2
g3
(S'0.01000000'
p76
S'1.00000000'
p77
S'0.010'
p78
S'10'
p79
g8
tp80
tp81
Rp82
g1
(g12
g3
(F0.3319220779220779
F0.1230144655632607
F0.5019805194805194
F0.16298701298701299
tp83
tp84
Rp85
sg1
(g2
g3
(S'0.01000000'
p86
S'0.03125000'
p87
S'0.010'
p88
S'10'
p89
g8
tp90
tp91
Rp92
g1
(g12
g3
(F0.2393474025974026
F0.10540228278445926
F0.3806493506493506
F0.12305194805194804
tp93
tp94
Rp95
s.