(dp0
ccopy_reg
_reconstructor
p1
(cscripts.archipelago_tuples
Parameters
p2
c__builtin__
tuple
p3
(S'0.30000000'
p4
S'0.50000000'
p5
S'0.300'
p6
S'10'
p7
S'6'
p8
tp9
tp10
Rp11
g1
(cscripts.archipelago_tuples
Metrics
p12
g3
(F0.1877305194805195
F0.04387609341450068
F0.27889610389610386
F0.13941558441558438
tp13
tp14
Rp15
sg1
(g2
g3
(S'0.30000000'
p16
S'0.50000000'
p17
S'0.300'
p18
S'10'
p19
S'5'
p20
tp21
tp22
Rp23
g1
(g12
g3
(F0.18986038961038962
F0.07034331537385115
F0.3608116883116883
F0.12886363636363635
tp24
tp25
Rp26
sg1
(g2
g3
(S'0.30000000'
p27
S'0.50000000'
p28
S'0.300'
p29
S'10'
p30
S'9'
p31
tp32
tp33
Rp34
g1
(g12
g3
(F0.18206168831168829
F0.03566141826488539
F0.24993506493506495
F0.13233766233766234
tp35
tp36
Rp37
sg1
(g2
g3
(S'0.30000000'
p38
S'0.50000000'
p39
S'0.300'
p40
S'10'
p41
S'4'
p42
tp43
tp44
Rp45
g1
(g12
g3
(F0.17200324675324677
F0.04193398579094979
F0.2609415584415584
F0.12688311688311688
tp46
tp47
Rp48
sg1
(g2
g3
(S'0.30000000'
p49
S'0.50000000'
p50
S'0.300'
p51
S'10'
p52
S'3'
p53
tp54
tp55
Rp56
g1
(g12
g3
(F0.17549675324675323
F0.04877528091288005
F0.28074675324675324
F0.12496753246753249
tp57
tp58
Rp59
sg1
(g2
g3
(S'0.30000000'
p60
S'0.50000000'
p61
S'0.300'
p62
S'10'
p63
S'8'
p64
tp65
tp66
Rp67
g1
(g12
g3
(F0.18753896103896103
F0.054719161979706984
F0.30262987012987014
F0.13405844155844154
tp68
tp69
Rp70
sg1
(g2
g3
(S'0.30000000'
p71
S'0.50000000'
p72
S'0.300'
p73
S'10'
p74
S'7'
p75
tp76
tp77
Rp78
g1
(g12
g3
(F0.18189610389610386
F0.058075569727866636
F0.3208441558441558
F0.1304220779220779
tp79
tp80
Rp81
sg1
(g2
g3
(S'0.30000000'
p82
S'0.50000000'
p83
S'0.300'
p84
S'10'
p85
S'2'
p86
tp87
tp88
Rp89
g1
(g12
g3
(F0.20030194805194804
F0.07556061233827509
F0.37870129870129865
F0.13935064935064934
tp90
tp91
Rp92
sg1
(g2
g3
(S'0.30000000'
p93
S'0.50000000'
p94
S'0.300'
p95
S'10'
p96
S'10'
p97
tp98
tp99
Rp100
g1
(g12
g3
(F0.1632824675324675
F0.05212008035662443
F0.28834415584415585
F0.12155844155844153
tp101
tp102
Rp103
s.