(dp0
ccopy_reg
_reconstructor
p1
(cscripts.archipelago_tuples
Parameters
p2
c__builtin__
tuple
p3
(S'0.10000000'
p4
S'0.25000000'
p5
S'0.100'
p6
S'10'
p7
S'5'
p8
S'300'
p9
tp10
tp11
Rp12
g1
(cscripts.archipelago_tuples
Metrics
p13
g3
(cnumpy.core.multiarray
scalar
p14
(cnumpy
dtype
p15
(S'f8'
p16
I0
I1
tp17
Rp18
(I3
S'<'
p19
NNNI-1
I-1
I0
tp20
bS';G\xa0h\xab\xc1\xcb?'
p21
tp22
Rp23
g14
(g18
S'U\xe3\xa0\x05g\x9a\xaf?'
p24
tp25
Rp26
g14
(g18
S'\x00\x00\x00\x00\x00\x00\x00\x00'
p27
tp28
Rp29
g14
(g18
S'\x00\x00\x00\x00\x00\x00\x00\x00'
p30
tp31
Rp32
F0.2168478260869565
F0.2168478260869565
tp33
tp34
Rp35
sg1
(g2
g3
(S'0.10000000'
p36
S'0.25000000'
p37
S'0.050'
p38
S'10'
p39
g8
S'300'
p40
tp41
tp42
Rp43
g1
(g13
g3
(g14
(g18
S'e!\x0bY\xc8B\xd0?'
p44
tp45
Rp46
g14
(g18
S'%g\xf5D\x83\xd8\xbf?'
p47
tp48
Rp49
g14
(g18
S'\x00\x00\x00\x00\x00\x00\x00\x00'
p50
tp51
Rp52
g14
(g18
S'\x00\x00\x00\x00\x00\x00\x00\x00'
p53
tp54
Rp55
F0.2540760869565218
F0.2540760869565218
tp56
tp57
Rp58
sg1
(g2
g3
(S'0.10000000'
p59
S'0.25000000'
p60
S'0.025'
p61
S'10'
p62
g8
S'300'
p63
tp64
tp65
Rp66
g1
(g13
g3
(g14
(g18
S'{\xd3\x9b\xde\xf4\xa6\xd1?'
p67
tp68
Rp69
g14
(g18
S'\xe2\x85\x90\x7f5\x87\xb9?'
p70
tp71
Rp72
g14
(g18
S'\x00\x00\x00\x00\x00\x00\x00\x00'
p73
tp74
Rp75
g14
(g18
S'\x00\x00\x00\x00\x00\x00\x00\x00'
p76
tp77
Rp78
F0.2758152173913044
F0.2758152173913044
tp79
tp80
Rp81
sg1
(g2
g3
(S'0.10000000'
p82
S'0.25000000'
p83
S'0.006'
p84
S'10'
p85
g8
S'300'
p86
tp87
tp88
Rp89
g1
(g13
g3
(g14
(g18
S'\xf5\xa67\xbd\xe9M\xd7?'
p90
tp91
Rp92
g14
(g18
S'\xdcX\xc9J\x9f\x80\xba?'
p93
tp94
Rp95
g14
(g18
S'\x00\x00\x00\x00\x00\x00\x00\x00'
p96
tp97
Rp98
g14
(g18
S'\x00\x00\x00\x00\x00\x00\x00\x00'
p99
tp100
Rp101
F0.3641304347826087
F0.3641304347826087
tp102
tp103
Rp104
sg1
(g2
g3
(S'0.10000000'
p105
S'0.25000000'
p106
S'0.002'
p107
S'10'
p108
g8
S'300'
p109
tp110
tp111
Rp112
g1
(g13
g3
(g14
(g18
S'*\x1f\xc6\xfd\xba\xa4\xda?'
p113
tp114
Rp115
g14
(g18
S'Z\x9a\xba\x06\xc3\xb7\xb9?'
p116
tp117
Rp118
g14
(g18
S'\xf4\x9a\\\xd0\xd4^U?'
p119
tp120
Rp121
g14
(g18
S'\x81\x19\x83\x11\x1c\xdbc?'
p122
tp123
Rp124
F0.41739130434782606
F0.4130434782608695
tp125
tp126
Rp127
sg1
(g2
g3
(S'0.10000000'
p128
S'0.25000000'
p129
S'0.003'
p130
S'10'
p131
g8
S'300'
p132
tp133
tp134
Rp135
g1
(g13
g3
(g14
(g18
S'H\xa0h\xab\xc1s\xda?'
p136
tp137
Rp138
g14
(g18
S'\x0b\xea\xa8\xcf\xc7\x11\xb9?'
p139
tp140
Rp141
g14
(g18
S'\x00\x00\x00\x00\x00\x00\x00\x00'
p142
tp143
Rp144
g14
(g18
S'\x00\x00\x00\x00\x00\x00\x00\x00'
p145
tp146
Rp147
F0.4133152173913044
F0.4133152173913044
tp148
tp149
Rp150
sg1
(g2
g3
(S'0.10000000'
p151
S'0.25000000'
p152
S'0.013'
p153
S'10'
p154
g8
S'300'
p155
tp156
tp157
Rp158
g1
(g13
g3
(g14
(g18
S'\t\x14m5x\x8e\xd2?'
p159
tp160
Rp161
g14
(g18
S'\xaf\xfd\x18L\xb9\x15\xb7?'
p162
tp163
Rp164
g14
(g18
S'\x00\x00\x00\x00\x00\x00\x00\x00'
p165
tp166
Rp167
g14
(g18
S'\x00\x00\x00\x00\x00\x00\x00\x00'
p168
tp169
Rp170
F0.28994565217391305
F0.28994565217391305
tp171
tp172
Rp173
s.