(dp0
ccopy_reg
_reconstructor
p1
(cscripts.archipelago_tuples
Parameters
p2
c__builtin__
tuple
p3
(S'0.75000000'
p4
S'0.00390625'
p5
S'0.750'
p6
S'100'
p7
S'50'
p8
tp9
tp10
Rp11
g1
(cscripts.archipelago_tuples
Metrics
p12
g3
(F0.3061249999999999
F0.10919154550715478
F0.4766304347826087
F0.14646739130434785
tp13
tp14
Rp15
sg1
(g2
g3
(S'0.75000000'
p16
S'0.00390625'
p17
S'0.750'
p18
S'100'
p19
S'15'
p20
tp21
tp22
Rp23
g1
(g12
g3
(F0.36835869565217394
F0.15932616025856752
F0.6108695652173912
F0.14619565217391306
tp24
tp25
Rp26
sg1
(g2
g3
(S'0.75000000'
p27
S'0.00390625'
p28
S'0.750'
p29
S'100'
p30
S'85'
p31
tp32
tp33
Rp34
g1
(g12
g3
(F0.323125
F0.07558106964403458
F0.4932065217391305
F0.15380434782608693
tp35
tp36
Rp37
sg1
(g2
g3
(S'0.75000000'
p38
S'0.00390625'
p39
S'0.750'
p40
S'100'
p41
S'35'
p42
tp43
tp44
Rp45
g1
(g12
g3
(F0.293758152173913
F0.1184730634441306
F0.5244565217391305
F0.14293478260869566
tp46
tp47
Rp48
sg1
(g2
g3
(S'0.75000000'
p49
S'0.00390625'
p50
S'0.750'
p51
S'100'
p52
S'55'
p53
tp54
tp55
Rp56
g1
(g12
g3
(F0.3017119565217391
F0.10375363476714528
F0.48777173913043476
F0.14048913043478262
tp57
tp58
Rp59
sg1
(g2
g3
(S'0.75000000'
p60
S'0.00390625'
p61
S'0.750'
p62
S'100'
p63
S'20'
p64
tp65
tp66
Rp67
g1
(g12
g3
(F0.34426630434782607
F0.15975465464910224
F0.5997282608695651
F0.14429347826086955
tp68
tp69
Rp70
sg1
(g2
g3
(S'0.75000000'
p71
S'0.00390625'
p72
S'0.750'
p73
S'100'
p74
S'65'
p75
tp76
tp77
Rp78
g1
(g12
g3
(F0.31557065217391306
F0.09563270956843732
F0.46929347826086953
F0.14565217391304347
tp79
tp80
Rp81
sg1
(g2
g3
(S'0.75000000'
p82
S'0.00390625'
p83
S'0.750'
p84
S'100'
p85
S'80'
p86
tp87
tp88
Rp89
g1
(g12
g3
(F0.35549184782608695
F0.09146141386966984
F0.4850543478260869
F0.15407608695652178
tp90
tp91
Rp92
sg1
(g2
g3
(S'0.75000000'
p93
S'0.00390625'
p94
S'0.750'
p95
S'100'
p96
S'90'
p97
tp98
tp99
Rp100
g1
(g12
g3
(F0.3273940217391304
F0.06913722661248153
F0.44945652173913037
F0.15706521739130436
tp101
tp102
Rp103
sg1
(g2
g3
(S'0.75000000'
p104
S'0.00390625'
p105
S'0.750'
p106
S'100'
p107
S'60'
p108
tp109
tp110
Rp111
g1
(g12
g3
(F0.342883152173913
F0.11824402826622926
F0.49864130434782605
F0.14755434782608698
tp112
tp113
Rp114
sg1
(g2
g3
(S'0.75000000'
p115
S'0.00390625'
p116
S'0.750'
p117
S'100'
p118
S'30'
p119
tp120
tp121
Rp122
g1
(g12
g3
(F0.335445652173913
F0.13913460841546166
F0.5711956521739131
F0.1483695652173913
tp123
tp124
Rp125
sg1
(g2
g3
(S'0.75000000'
p126
S'0.00390625'
p127
S'0.750'
p128
S'100'
p129
S'5'
p130
tp131
tp132
Rp133
g1
(g12
g3
(F0.3659891304347826
F0.1576857288620495
F0.6168478260869565
F0.1448369565217391
tp134
tp135
Rp136
sg1
(g2
g3
(S'0.75000000'
p137
S'0.00390625'
p138
S'0.750'
p139
S'100'
p140
S'10'
p141
tp142
tp143
Rp144
g1
(g12
g3
(F0.3687717391304347
F0.15237037904325587
F0.6209239130434783
F0.15380434782608698
tp145
tp146
Rp147
sg1
(g2
g3
(S'0.75000000'
p148
S'0.00390625'
p149
S'0.750'
p150
S'100'
p151
S'45'
p152
tp153
tp154
Rp155
g1
(g12
g3
(F0.311391304347826
F0.13106413460965535
F0.5214673913043477
F0.13858695652173916
tp156
tp157
Rp158
sg1
(g2
g3
(S'0.75000000'
p159
S'0.00390625'
p160
S'0.750'
p161
S'100'
p162
S'95'
p163
tp164
tp165
Rp166
g1
(g12
g3
(F0.38438043478260864
F0.08280236919310316
F0.4967391304347825
F0.15625
tp167
tp168
Rp169
sg1
(g2
g3
(S'0.75000000'
p170
S'0.00390625'
p171
S'0.750'
p172
S'100'
p173
S'25'
p174
tp175
tp176
Rp177
g1
(g12
g3
(F0.37259239130434785
F0.14938021740233975
F0.5733695652173914
F0.1559782608695652
tp178
tp179
Rp180
sg1
(g2
g3
(S'0.75000000'
p181
S'0.00390625'
p182
S'0.750'
p183
S'100'
p184
S'70'
p185
tp186
tp187
Rp188
g1
(g12
g3
(F0.37091304347826076
F0.12208721748353842
F0.5157608695652175
F0.1418478260869565
tp189
tp190
Rp191
sg1
(g2
g3
(S'0.75000000'
p192
S'0.00390625'
p193
S'0.750'
p194
S'100'
p195
S'40'
p196
tp197
tp198
Rp199
g1
(g12
g3
(F0.30435869565217394
F0.1320437793154907
F0.5247282608695653
F0.14619565217391303
tp200
tp201
Rp202
sg1
(g2
g3
(S'0.75000000'
p203
S'0.00390625'
p204
S'0.750'
p205
S'100'
p206
S'75'
p207
tp208
tp209
Rp210
g1
(g12
g3
(F0.3584293478260869
F0.10470319386339386
F0.4904891304347826
F0.15081521739130438
tp211
tp212
Rp213
s.