(dp0
ccopy_reg
_reconstructor
p1
(cscripts.archipelago_tuples
Parameters
p2
c__builtin__
tuple
p3
(S'0.10000000'
p4
S'4.00000000'
p5
S'0.006'
p6
S'20'
p7
S'20'
p8
S'100'
p9
tp10
tp11
Rp12
g1
(cscripts.archipelago_tuples
Metrics
p13
g3
(cnumpy.core.multiarray
scalar
p14
(cnumpy
dtype
p15
(S'f8'
p16
I0
I1
tp17
Rp18
(I3
S'<'
p19
NNNI-1
I-1
I0
tp20
bS's\xf4\xca\xa9\xd7\x9d\xd9?'
p21
tp22
Rp23
g14
(g18
S'\x06d2\x95^\xb4\xc3?'
p24
tp25
Rp26
F0.009091127741626712
F0.4182333514886478
tp27
tp28
Rp29
sg1
(g2
g3
(S'0.10000000'
p30
S'4.00000000'
p31
S'0.025'
p32
S'20'
p33
S'20'
p34
S'100'
p35
tp36
tp37
Rp38
g1
(g13
g3
(g14
(g18
S'Cb\xe0\xeeF\xfa\xcc?'
p39
tp40
Rp41
g14
(g18
S'\xfb\xe4\x01\xd2\xf1\x11\xa5?'
p42
tp43
Rp44
F0.007483343037925018
F0.24154701949835505
tp45
tp46
Rp47
sg1
(g2
g3
(S'0.10000000'
p48
S'4.00000000'
p49
S'0.003'
p50
S'20'
p51
S'20'
p52
S'100'
p53
tp54
tp55
Rp56
g1
(g13
g3
(g14
(g18
S'h)\xc0\xc7\xb4\x8a\xde?'
p57
tp58
Rp59
g14
(g18
S',\xae4\xe1\xe3&\xc6?'
p60
tp61
Rp62
F0.006408015206864166
F0.49134826029591155
tp63
tp64
Rp65
sg1
(g2
g3
(S'0.10000000'
p66
S'4.00000000'
p67
S'0.050'
p68
S'20'
p69
S'20'
p70
S'100'
p71
tp72
tp73
Rp74
g1
(g13
g3
(g14
(g18
S'\x13pDaw\x10\xc8?'
p75
tp76
Rp77
g14
(g18
S'\x95\x1aL\r\x82\x12\x84?'
p78
tp79
Rp80
F0.00883676311886496
F0.20245074113664843
tp81
tp82
Rp83
sg1
(g2
g3
(S'0.10000000'
p84
S'4.00000000'
p85
S'0.013'
p86
S'20'
p87
S'20'
p88
S'100'
p89
tp90
tp91
Rp92
g1
(g13
g3
(g14
(g18
S's V\xd3\xe5\xd3\xd4?'
p93
tp94
Rp95
g14
(g18
S'\x11+\xdf\x15\xb4\x04\xbd?'
p96
tp97
Rp98
F0.005800841929830653
F0.3375227915832767
tp99
tp100
Rp101
s.