(dp0
ccopy_reg
_reconstructor
p1
(cscripts.archipelago_tuples
Parameters
p2
c__builtin__
tuple
p3
(S'0.10000000'
p4
S'1.00000000'
p5
S'0.050'
p6
S'50'
p7
S'40'
p8
tp9
tp10
Rp11
g1
(cscripts.archipelago_tuples
Metrics
p12
g3
(F0.40723913043478266
F0.04226305760496544
F0.5372282608695652
F0.35733695652173914
tp13
tp14
Rp15
sg1
(g2
g3
(S'0.10000000'
p16
S'1.00000000'
p17
S'0.050'
p18
S'50'
p19
S'30'
p20
tp21
tp22
Rp23
g1
(g12
g3
(F0.4135978260869565
F0.03497739932903006
F0.5078804347826086
F0.37418478260869564
tp24
tp25
Rp26
sg1
(g2
g3
(S'0.10000000'
p27
S'1.00000000'
p28
S'0.050'
p29
S'50'
p30
S'20'
p31
tp32
tp33
Rp34
g1
(g12
g3
(F0.4028967391304348
F0.03249869897669475
F0.5089673913043478
F0.3625
tp35
tp36
Rp37
sg1
(g2
g3
(S'0.10000000'
p38
S'1.00000000'
p39
S'0.050'
p40
S'50'
p41
S'10'
p42
tp43
tp44
Rp45
g1
(g12
g3
(F0.3310869565217391
F0.030997021029581583
F0.42826086956521736
F0.28994565217391305
tp46
tp47
Rp48
sg1
(g2
g3
(S'0.10000000'
p49
S'1.00000000'
p50
S'0.050'
p51
S'50'
p52
S'2'
p53
tp54
tp55
Rp56
g1
(g12
g3
(F0.27704891304347823
F0.009235801814959657
F0.30244565217391306
F0.26440217391304344
tp57
tp58
Rp59
sg1
(g2
g3
(S'0.10000000'
p60
S'1.00000000'
p61
S'0.050'
p62
S'50'
p63
S'50'
p64
tp65
tp66
Rp67
g1
(g12
g3
(F0.3776467391304347
F0.048027600459892315
F0.466304347826087
F0.30951086956521745
tp68
tp69
Rp70
s.