(dp0
ccopy_reg
_reconstructor
p1
(cscripts.archipelago_tuples
Parameters
p2
c__builtin__
tuple
p3
(S'0.10000000'
p4
S'2.00000000'
p5
S'0.100'
p6
S'10'
p7
S'10'
p8
S'368'
p9
tp10
tp11
Rp12
g1
(cscripts.archipelago_tuples
Metrics
p13
g3
(cnumpy.core.multiarray
scalar
p14
(cnumpy
dtype
p15
(S'f8'
p16
I0
I1
tp17
Rp18
(I3
S'<'
p19
NNNI-1
I-1
I0
tp20
bS'\x96\xb7\xf2\xd4\n\xcd\xc4?'
p21
tp22
Rp23
g14
(g18
S'\xe8\xf7U<\xaeAm?'
p24
tp25
Rp26
F0.0029289348431270476
F0.16817649983139699
tp27
tp28
Rp29
sg1
(g2
g3
(S'0.10000000'
p30
S'8.00000000'
p31
S'0.100'
p32
S'10'
p33
S'10'
p34
S'368'
p35
tp36
tp37
Rp38
g1
(g13
g3
(g14
(g18
S'a\x89\xbf\xef)\xd1\xc5?'
p39
tp40
Rp41
g14
(g18
S'\n\xd7\xa9\xe7\xbci\x80?'
p42
tp43
Rp44
F0.0024462018555573223
F0.17465624031098392
tp45
tp46
Rp47
sg1
(g2
g3
(S'0.10000000'
p48
S'0.01562500'
p49
S'0.100'
p50
S'10'
p51
S'10'
p52
S'368'
p53
tp54
tp55
Rp56
g1
(g13
g3
(g14
(g18
S'\x86n\xb6=\xc6\n\xda?'
p57
tp58
Rp59
g14
(g18
S'2\xd1\xd0\xb4\xf7l\xc2?'
p60
tp61
Rp62
F0.013870311659231731
F0.43315058890358243
tp63
tp64
Rp65
sg1
(g2
g3
(S'0.10000000'
p66
S'0.50000000'
p67
S'0.100'
p68
S'10'
p69
S'10'
p70
S'368'
p71
tp72
tp73
Rp74
g1
(g13
g3
(g14
(g18
S'\xb2\xc5\xc0?\x85+\xc5?'
p75
tp76
Rp77
g14
(g18
S'\x9c\xed\x84Y~e~?'
p78
tp79
Rp80
F0.004717365561075316
F0.1754241855945878
tp81
tp82
Rp83
sg1
(g2
g3
(S'0.10000000'
p84
S'64.00000000'
p85
S'0.100'
p86
S'10'
p87
S'10'
p88
S'368'
p89
tp90
tp91
Rp92
g1
(g13
g3
(g14
(g18
S'}\xf3\xf4\xe0@\xc5\xce?'
p93
tp94
Rp95
g14
(g18
S'\x16\x1e\xb1\xc4\xa1\xce\x81?'
p96
tp97
Rp98
F0.0009077702367058293
F0.24080931526049731
tp99
tp100
Rp101
sg1
(g2
g3
(S'0.10000000'
p102
S'4.00000000'
p103
S'0.100'
p104
S'10'
p105
S'10'
p106
S'368'
p107
tp108
tp109
Rp110
g1
(g13
g3
(g14
(g18
S'\xcf\x8c\xbdr87\xc5?'
p111
tp112
Rp113
g14
(g18
S'\x86\\G\xb1\x8dAu?'
p114
tp115
Rp116
F0.002513396715543981
F0.17038822637916898
tp117
tp118
Rp119
sg1
(g2
g3
(S'0.10000000'
p120
S'0.25000000'
p121
S'0.100'
p122
S'10'
p123
S'10'
p124
S'368'
p125
tp126
tp127
Rp128
g1
(g13
g3
(g14
(g18
S'}.\xbb\x8a\xdb\xfe\xca?'
p129
tp130
Rp131
g14
(g18
S'\x06\xaf\x14,\x15\xd7\x95?'
p132
tp133
Rp134
F0.02325981716598358
F0.25727138259760307
tp135
tp136
Rp137
sg1
(g2
g3
(S'0.10000000'
p138
S'16.00000000'
p139
S'0.100'
p140
S'10'
p141
S'10'
p142
S'368'
p143
tp144
tp145
Rp146
g1
(g13
g3
(g14
(g18
S'\x07\xe1\x05\xe0\xdb\xc8\xc7?'
p147
tp148
Rp149
g14
(g18
S'M_\xe5\x0c|N}?'
p150
tp151
Rp152
F0.005172307163615129
F0.19200860328047925
tp153
tp154
Rp155
sg1
(g2
g3
(S'0.10000000'
p156
S'0.03125000'
p157
S'0.100'
p158
S'10'
p159
S'10'
p160
S'368'
p161
tp162
tp163
Rp164
g1
(g13
g3
(g14
(g18
S'4Ya\x9b\xfe\xa1\xd6?'
p165
tp166
Rp167
g14
(g18
S'2\xf2:\xe5un\xb6?'
p168
tp169
Rp170
F0.011810359580656463
F0.37799799373717086
tp171
tp172
Rp173
sg1
(g2
g3
(S'0.10000000'
p174
S'32.00000000'
p175
S'0.100'
p176
S'10'
p177
S'10'
p178
S'368'
p179
tp180
tp181
Rp182
g1
(g13
g3
(g14
(g18
S'Mmg[\xbe\xb8\xcc?'
p183
tp184
Rp185
g14
(g18
S'~l\x82\x08Eo\x84?'
p186
tp187
Rp188
F0.007733213845977066
F0.23006041985547668
tp189
tp190
Rp191
sg1
(g2
g3
(S'0.10000000'
p192
S'1.00000000'
p193
S'0.100'
p194
S'10'
p195
S'10'
p196
S'368'
p197
tp198
tp199
Rp200
g1
(g13
g3
(g14
(g18
S'\xca\xd8\x92\xdf\x9a\xe6\xc4?'
p201
tp202
Rp203
g14
(g18
S'\x87]\xb3X:^r?'
p204
tp205
Rp206
F0.004113676688692403
F0.17087947599538017
tp207
tp208
Rp209
sg1
(g2
g3
(S'0.10000000'
p210
S'0.12500000'
p211
S'0.100'
p212
S'10'
p213
S'10'
p214
S'368'
p215
tp216
tp217
Rp218
g1
(g13
g3
(g14
(g18
S'}\xe9\xbc\xf6\x15\xeb\xcc?'
p219
tp220
Rp221
g14
(g18
S'#\xfa\xd7~\xf0\xe3\xb0?'
p222
tp223
Rp224
F0.01561870354840728
F0.25742479437597643
tp225
tp226
Rp227
sg1
(g2
g3
(S'0.10000000'
p228
S'0.06250000'
p229
S'0.100'
p230
S'10'
p231
S'10'
p232
S'368'
p233
tp234
tp235
Rp236
g1
(g13
g3
(g14
(g18
S'\t\x9d:\xcd\x86\xdd\xd1?'
p237
tp238
Rp239
g14
(g18
S'Z\xd5Q\x84\x04\x88\xb9?'
p240
tp241
Rp242
F0.010815767364739973
F0.3008217982964682
tp243
tp244
Rp245
s.