(dp0
ccopy_reg
_reconstructor
p1
(cscripts.archipelago_tuples
Parameters
p2
c__builtin__
tuple
p3
(S'1.00000000'
p4
S'0.06250000'
p5
S'1.000'
p6
S'50'
p7
S'50'
p8
tp9
tp10
Rp11
g1
(cscripts.archipelago_tuples
Metrics
p12
g3
(F0.20175543478260866
F0.02827106856738864
F0.2554347826086957
F0.14048913043478262
tp13
tp14
Rp15
sg1
(g2
g3
(S'10.00000000'
p16
S'0.06250000'
p17
S'10.000'
p18
S'50'
p19
S'50'
p20
tp21
tp22
Rp23
g1
(g12
g3
(F0.16927173913043478
F0.01235969402038295
F0.2019021739130435
F0.1380434782608696
tp24
tp25
Rp26
sg1
(g2
g3
(S'2.50000000'
p27
S'0.06250000'
p28
S'2.500'
p29
S'50'
p30
S'50'
p31
tp32
tp33
Rp34
g1
(g12
g3
(F0.1763804347826087
F0.020805092903648875
F0.23478260869565215
F0.13722826086956522
tp35
tp36
Rp37
sg1
(g2
g3
(S'0.50000000'
p38
S'0.06250000'
p39
S'0.500'
p40
S'50'
p41
S'50'
p42
tp43
tp44
Rp45
g1
(g12
g3
(F0.23160326086956523
F0.04183412134749423
F0.3027173913043478
F0.14592391304347826
tp46
tp47
Rp48
sg1
(g2
g3
(S'9.50000000'
p49
S'0.06250000'
p50
S'9.500'
p51
S'50'
p52
S'50'
p53
tp54
tp55
Rp56
g1
(g12
g3
(F0.16228260869565217
F0.011256904307616467
F0.19728260869565217
F0.13532608695652176
tp57
tp58
Rp59
sg1
(g2
g3
(S'1.50000000'
p60
S'0.06250000'
p61
S'1.500'
p62
S'50'
p63
S'50'
p64
tp65
tp66
Rp67
g1
(g12
g3
(F0.17615217391304347
F0.01863115492712792
F0.24320652173913043
F0.13831521739130434
tp68
tp69
Rp70
sg1
(g2
g3
(S'4.50000000'
p71
S'0.06250000'
p72
S'4.500'
p73
S'50'
p74
S'50'
p75
tp76
tp77
Rp78
g1
(g12
g3
(F0.16878260869565218
F0.02411226098836852
F0.2864130434782609
F0.13505434782608697
tp79
tp80
Rp81
sg1
(g2
g3
(S'6.00000000'
p82
S'0.06250000'
p83
S'6.000'
p84
S'50'
p85
S'50'
p86
tp87
tp88
Rp89
g1
(g12
g3
(F0.17380978260869565
F0.023093793807544866
F0.26766304347826086
F0.13532608695652174
tp90
tp91
Rp92
sg1
(g2
g3
(S'3.50000000'
p93
S'0.06250000'
p94
S'3.500'
p95
S'50'
p96
S'50'
p97
tp98
tp99
Rp100
g1
(g12
g3
(F0.16646739130434784
F0.01747012901961576
F0.22554347826086957
F0.13179347826086957
tp101
tp102
Rp103
sg1
(g2
g3
(S'3.00000000'
p104
S'0.06250000'
p105
S'3.000'
p106
S'50'
p107
S'50'
p108
tp109
tp110
Rp111
g1
(g12
g3
(F0.17257608695652177
F0.019221737229231844
F0.24048913043478262
F0.13342391304347828
tp112
tp113
Rp114
sg1
(g2
g3
(S'7.00000000'
p115
S'0.06250000'
p116
S'7.000'
p117
S'50'
p118
S'50'
p119
tp120
tp121
Rp122
g1
(g12
g3
(F0.17085326086956523
F0.018679652057328393
F0.2260869565217391
F0.1266304347826087
tp123
tp124
Rp125
sg1
(g2
g3
(S'9.00000000'
p126
S'0.06250000'
p127
S'9.000'
p128
S'50'
p129
S'50'
p130
tp131
tp132
Rp133
g1
(g12
g3
(F0.16577173913043478
F0.01560239199853691
F0.22228260869565214
F0.13016304347826085
tp134
tp135
Rp136
sg1
(g2
g3
(S'5.00000000'
p137
S'0.06250000'
p138
S'5.000'
p139
S'50'
p140
S'50'
p141
tp142
tp143
Rp144
g1
(g12
g3
(F0.17431521739130434
F0.02453112100103947
F0.26793478260869563
F0.1375
tp145
tp146
Rp147
sg1
(g2
g3
(S'4.00000000'
p148
S'0.06250000'
p149
S'4.000'
p150
S'50'
p151
S'50'
p152
tp153
tp154
Rp155
g1
(g12
g3
(F0.16971195652173915
F0.021772301676479457
F0.25896739130434787
F0.14130434782608697
tp156
tp157
Rp158
sg1
(g2
g3
(S'8.00000000'
p159
S'0.06250000'
p160
S'8.000'
p161
S'50'
p162
S'50'
p163
tp164
tp165
Rp166
g1
(g12
g3
(F0.17032608695652174
F0.018393777018606478
F0.23532608695652177
F0.13532608695652176
tp167
tp168
Rp169
sg1
(g2
g3
(S'2.00000000'
p170
S'0.06250000'
p171
S'2.000'
p172
S'50'
p173
S'50'
p174
tp175
tp176
Rp177
g1
(g12
g3
(F0.1706413043478261
F0.01953934773347421
F0.24510869565217397
F0.13831521739130434
tp178
tp179
Rp180
sg1
(g2
g3
(S'7.50000000'
p181
S'0.06250000'
p182
S'7.500'
p183
S'50'
p184
S'50'
p185
tp186
tp187
Rp188
g1
(g12
g3
(F0.17229347826086955
F0.02063006079618892
F0.25461956521739126
F0.1328804347826087
tp189
tp190
Rp191
sg1
(g2
g3
(S'5.50000000'
p192
S'0.06250000'
p193
S'5.500'
p194
S'50'
p195
S'50'
p196
tp197
tp198
Rp199
g1
(g12
g3
(F0.17030978260869567
F0.019082362487071618
F0.2399456521739131
F0.13016304347826085
tp200
tp201
Rp202
sg1
(g2
g3
(S'8.50000000'
p203
S'0.06250000'
p204
S'8.500'
p205
S'50'
p206
S'50'
p207
tp208
tp209
Rp210
g1
(g12
g3
(F0.16825
F0.0176194287953609
F0.2339673913043478
F0.1388586956521739
tp211
tp212
Rp213
sg1
(g2
g3
(S'6.50000000'
p214
S'0.06250000'
p215
S'6.500'
p216
S'50'
p217
S'50'
p218
tp219
tp220
Rp221
g1
(g12
g3
(F0.17283152173913047
F0.022521846693857178
F0.2703804347826087
F0.13777173913043478
tp222
tp223
Rp224
s.