(dp0
ccopy_reg
_reconstructor
p1
(cscripts.archipelago_tuples
Parameters
p2
c__builtin__
tuple
p3
(S'0.10000000'
p4
S'0.12500000'
p5
S'0.100'
p6
S'10'
p7
S'2'
p8
tp9
tp10
Rp11
g1
(cscripts.archipelago_tuples
Metrics
p12
g3
(F0.3512771739130435
F0.054212741277757916
F0.40570652173913035
F0.25380434782608696
tp13
tp14
Rp15
sg1
(g2
g3
(S'0.10000000'
p16
S'0.12500000'
p17
S'0.100'
p18
S'6'
p19
g8
tp20
tp21
Rp22
g1
(g12
g3
(F0.38831521739130437
F0.021552993035063285
F0.4133152173913044
F0.3521739130434782
tp23
tp24
Rp25
sg1
(g2
g3
(S'0.10000000'
p26
S'0.12500000'
p27
S'0.100'
p28
S'3'
p29
g8
tp30
tp31
Rp32
g1
(g12
g3
(F0.3982789855072463
F0.02356988666175321
F0.42853260869565213
F0.3717391304347826
tp33
tp34
Rp35
sg1
(g2
g3
(S'0.10000000'
p36
S'0.12500000'
p37
S'0.100'
p38
S'9'
p39
g8
tp40
tp41
Rp42
g1
(g12
g3
(F0.3483695652173913
F0.021250669250228154
F0.36983695652173915
F0.3032608695652174
tp43
tp44
Rp45
sg1
(g2
g3
(S'0.10000000'
p46
S'0.12500000'
p47
S'0.100'
p48
S'5'
p49
g8
tp50
tp51
Rp52
g1
(g12
g3
(F0.3476086956521739
F0.04974995150765597
F0.4002717391304348
F0.27255434782608695
tp53
tp54
Rp55
sg1
(g2
g3
(S'0.10000000'
p56
S'0.12500000'
p57
S'0.100'
p58
S'7'
p59
g8
tp60
tp61
Rp62
g1
(g12
g3
(F0.40582298136645967
F0.012775336083236713
F0.42527173913043476
F0.3877717391304348
tp63
tp64
Rp65
sg1
(g2
g3
(S'0.10000000'
p66
S'0.12500000'
p67
S'0.100'
p68
g8
g8
tp69
tp70
Rp71
g1
(g12
g3
(F0.390625
F0.017255434782608693
F0.4078804347826087
F0.3733695652173913
tp72
tp73
Rp74
sg1
(g2
g3
(S'0.10000000'
p75
S'0.12500000'
p76
S'0.100'
p77
S'8'
p78
g8
tp79
tp80
Rp81
g1
(g12
g3
(F0.4192595108695653
F0.014676667759124809
F0.4413043478260869
F0.39701086956521736
tp82
tp83
Rp84
sg1
(g2
g3
(S'0.10000000'
p85
S'0.12500000'
p86
S'0.100'
p87
S'4'
p88
g8
tp89
tp90
Rp91
g1
(g12
g3
(F0.4493885869565218
F0.019858008722280662
F0.4733695652173912
F0.42255434782608703
tp92
tp93
Rp94
s.