(dp0
ccopy_reg
_reconstructor
p1
(cscripts.archipelago_tuples
Parameters
p2
c__builtin__
tuple
p3
(S'1.00000000'
p4
S'64.00000000'
p5
S'1.000'
p6
S'20'
p7
S'20'
p8
S'50'
p9
tp10
tp11
Rp12
g1
(cscripts.archipelago_tuples
Metrics
p13
g3
(cnumpy.core.multiarray
scalar
p14
(cnumpy
dtype
p15
(S'f8'
p16
I0
I1
tp17
Rp18
(I3
S'<'
p19
NNNI-1
I-1
I0
tp20
bS'\xbe\xa5\x0f\xed\xd8\xd2\xce?'
p21
tp22
Rp23
g14
(g18
S'\x94\x83W\xa0\x07Sy?'
p24
tp25
Rp26
F0.0
F0.24080955100298057
tp27
tp28
Rp29
sg1
(g2
g3
(S'1.00000000'
p30
S'0.00781250'
p31
S'1.000'
p32
S'20'
p33
S'20'
p34
S'50'
p35
tp36
tp37
Rp38
g1
(g13
g3
(g14
(g18
S'_\xea"p\xc3\xf5\xd8?'
p39
tp40
Rp41
g14
(g18
S'\x12O4\xf5d@\xbf?'
p42
tp43
Rp44
F0.0
F0.39000020933932505
tp45
tp46
Rp47
sg1
(g2
g3
(S'1.00000000'
p48
S'4.00000000'
p49
S'1.000'
p50
S'20'
p51
S'20'
p52
S'50'
p53
tp54
tp55
Rp56
g1
(g13
g3
(g14
(g18
S'\xaa\xc32c\xb0\xdf\xcc?'
p57
tp58
Rp59
g14
(g18
S'E\xec\x002J\x10s?'
p60
tp61
Rp62
F0.0
F0.22557644694964313
tp63
tp64
Rp65
sg1
(g2
g3
(S'1.00000000'
p66
S'256.00000000'
p67
S'1.000'
p68
S'20'
p69
S'20'
p70
S'50'
p71
tp72
tp73
Rp74
g1
(g13
g3
(g14
(g18
S'\xf2\tOl\xd7\xd2\xce?'
p75
tp76
Rp77
g14
(g18
S'<I\xa4q\xb9\x16v?'
p78
tp79
Rp80
F0.0
F0.24080937183869328
tp81
tp82
Rp83
sg1
(g2
g3
(S'1.00000000'
p84
S'128.00000000'
p85
S'1.000'
p86
S'20'
p87
S'20'
p88
S'50'
p89
tp90
tp91
Rp92
g1
(g13
g3
(g14
(g18
S'&\x12\x8f\x80\xd7\xd2\xce?'
p93
tp94
Rp95
g14
(g18
S'\xbe9\xa4$\x8c\xd0\x81?'
p96
tp97
Rp98
F0.0
F0.24080938126839263
tp99
tp100
Rp101
sg1
(g2
g3
(S'1.00000000'
p102
S'0.06250000'
p103
S'1.000'
p104
S'20'
p105
S'20'
p106
S'50'
p107
tp108
tp109
Rp110
g1
(g13
g3
(g14
(g18
S'\x89\xd8\\\xdf\xd76\xd5?'
p111
tp112
Rp113
g14
(g18
S')"]4\xe6\x9c\xc1?'
p114
tp115
Rp116
F0.0
F0.3314723664547122
tp117
tp118
Rp119
sg1
(g2
g3
(S'1.00000000'
p120
S'2.00000000'
p121
S'1.000'
p122
S'20'
p123
S'20'
p124
S'50'
p125
tp126
tp127
Rp128
g1
(g13
g3
(g14
(g18
S'H\x83\xd8\xd0\x1b\x08\xca?'
p129
tp130
Rp131
g14
(g18
S'\x12W\nrf\xa2\x88?'
p132
tp133
Rp134
F0.0
F0.20337245652720015
tp135
tp136
Rp137
sg1
(g2
g3
(S'1.00000000'
p138
S'1.00000000'
p139
S'1.000'
p140
S'20'
p141
S'20'
p142
S'50'
p143
tp144
tp145
Rp146
g1
(g13
g3
(g14
(g18
S'K\xa0Z\xa6fZ\xc8?'
p147
tp148
Rp149
g14
(g18
S'n\xcf\x9b\xca\xd2\x9d\x92?'
p150
tp151
Rp152
F0.0
F0.19025881884340587
tp153
tp154
Rp155
sg1
(g2
g3
(S'1.00000000'
p156
S'0.01562500'
p157
S'1.000'
p158
S'20'
p159
S'20'
p160
S'50'
p161
tp162
tp163
Rp164
g1
(g13
g3
(g14
(g18
S':=\xff\x88\xd8\xea\xdd?'
p165
tp166
Rp167
g14
(g18
S'\xa5\xe2\xaf$+\xd7\xbb?'
p168
tp169
Rp170
F0.0
F0.46745885256401076
tp171
tp172
Rp173
sg1
(g2
g3
(S'1.00000000'
p174
S'0.00390625'
p175
S'1.000'
p176
S'20'
p177
S'20'
p178
S'50'
p179
tp180
tp181
Rp182
g1
(g13
g3
(g14
(g18
S'\xc2cMj[\\\xe1?'
p183
tp184
Rp185
g14
(g18
S'\x04\xcfI\x1a\xacq\xb7?'
p186
tp187
Rp188
F0.0
F0.5425240589348663
tp189
tp190
Rp191
sg1
(g2
g3
(S'1.00000000'
p192
S'0.50000000'
p193
S'1.000'
p194
S'20'
p195
S'20'
p196
S'50'
p197
tp198
tp199
Rp200
g1
(g13
g3
(g14
(g18
S')\xadF\xf3\xe1\x0e\xc8?'
p201
tp202
Rp203
g14
(g18
S'J\x05\xeak\xc8\x01\x8e?'
p204
tp205
Rp206
F0.0
F0.18795418146815138
tp207
tp208
Rp209
sg1
(g2
g3
(S'1.00000000'
p210
S'8.00000000'
p211
S'1.000'
p212
S'20'
p213
S'20'
p214
S'50'
p215
tp216
tp217
Rp218
g1
(g13
g3
(g14
(g18
S'\xf3[\xcf6\xd8\xd2\xce?'
p219
tp220
Rp221
g14
(g18
S'kB\xfe+\x13\x81|?'
p222
tp223
Rp224
F0.0
F0.24080946613568663
tp225
tp226
Rp227
sg1
(g2
g3
(S'1.00000000'
p228
S'16.00000000'
p229
S'1.000'
p230
S'20'
p231
S'20'
p232
S'50'
p233
tp234
tp235
Rp236
g1
(g13
g3
(g14
(g18
S'\x8d\xd0\x8e\xde\xd6\xd2\xce?'
p237
tp238
Rp239
g14
(g18
S'\x0f\xc8}\xdd\xaf\xd7}?'
p240
tp241
Rp242
F0.0
F0.240809305830798
tp243
tp244
Rp245
sg1
(g2
g3
(S'1.00000000'
p246
S'0.25000000'
p247
S'1.000'
p248
S'20'
p249
S'20'
p250
S'50'
p251
tp252
tp253
Rp254
g1
(g13
g3
(g14
(g18
S'\xdd^^\x03\xf0N\xc9?'
p255
tp256
Rp257
g14
(g18
S'\x8e\xf5\x06j{\xf7\x92?'
p258
tp259
Rp260
F0.0
F0.1977214828918851
tp261
tp262
Rp263
sg1
(g2
g3
(S'1.00000000'
p264
S'0.03125000'
p265
S'1.000'
p266
S'20'
p267
S'20'
p268
S'50'
p269
tp270
tp271
Rp272
g1
(g13
g3
(g14
(g18
S'V\x07\xa1\xf5\x0c\xf5\xd5?'
p273
tp274
Rp275
g14
(g18
S'\xec{\xee\xb7\xaa\xfb\xb7?'
p276
tp277
Rp278
F0.0
F0.34308170306404884
tp279
tp280
Rp281
sg1
(g2
g3
(S'1.00000000'
p282
S'0.12500000'
p283
S'1.000'
p284
S'20'
p285
S'20'
p286
S'50'
p287
tp288
tp289
Rp290
g1
(g13
g3
(g14
(g18
S'ZA\xfd\xb4\xbaA\xcc?'
p291
tp292
Rp293
g14
(g18
S'\xd6\xd7\xe7\xa1O;\xa1?'
p294
tp295
Rp296
F0.0
F0.22075589978568183
tp297
tp298
Rp299
sg1
(g2
g3
(S'1.00000000'
p300
S'32.00000000'
p301
S'1.000'
p302
S'20'
p303
S'20'
p304
S'50'
p305
tp306
tp307
Rp308
g1
(g13
g3
(g14
(g18
S'\x8a\x9d\xcf\xd8\xd8\xd2\xce?'
p309
tp310
Rp311
g14
(g18
S'\x08\xec,u\xbd\x90y?'
p312
tp313
Rp314
F0.0
F0.24080954157328122
tp315
tp316
Rp317
s.