(dp0
ccopy_reg
_reconstructor
p1
(cscripts.archipelago_tuples
Parameters
p2
c__builtin__
tuple
p3
(S'0.10000000'
p4
S'1.00000000'
p5
S'0.100'
p6
S'200'
p7
S'10'
p8
S'10'
p9
tp10
tp11
Rp12
g1
(cscripts.archipelago_tuples
Metrics
p13
g3
(F0.4711915760869566
F0.0711564921781245
F0.7165760869565216
F0.358695652173913
tp14
tp15
Rp16
s.