(dp0
ccopy_reg
_reconstructor
p1
(cscripts.archipelago_tuples
Parameters
p2
c__builtin__
tuple
p3
(S'1.00000000'
p4
S'32.00000000'
p5
S'1.000'
p6
S'50'
p7
S'50'
p8
tp9
tp10
Rp11
g1
(cscripts.archipelago_tuples
Metrics
p12
g3
(F0.38809782608695653
F0.032396990097388806
F0.4345108695652173
F0.2214673913043479
tp13
tp14
Rp15
sg1
(g2
g3
(S'1.00000000'
p16
S'0.01562500'
p17
S'1.000'
p18
S'50'
p19
S'50'
p20
tp21
tp22
Rp23
g1
(g12
g3
(F0.3463695652173913
F0.049673996771555824
F0.4959239130434783
F0.2752717391304348
tp24
tp25
Rp26
sg1
(g2
g3
(S'1.00000000'
p27
S'0.03125000'
p28
S'1.000'
p29
S'50'
p30
S'50'
p31
tp32
tp33
Rp34
g1
(g12
g3
(F0.4409673913043478
F0.029175278051643827
F0.5339673913043479
F0.4008152173913043
tp35
tp36
Rp37
sg1
(g2
g3
(S'1.00000000'
p38
S'128.00000000'
p39
S'1.000'
p40
S'50'
p41
S'50'
p42
tp43
tp44
Rp45
g1
(g12
g3
(F0.41528804347826087
F0.05938458621185202
F0.6035326086956522
F0.3964673913043478
tp46
tp47
Rp48
sg1
(g2
g3
(S'1.00000000'
p49
S'0.12500000'
p50
S'1.000'
p51
S'50'
p52
S'50'
p53
tp54
tp55
Rp56
g1
(g12
g3
(F0.3664021739130435
F0.03171174438732001
F0.46875
F0.33369565217391306
tp57
tp58
Rp59
sg1
(g2
g3
(S'1.00000000'
p60
S'8.00000000'
p61
S'1.000'
p62
S'50'
p63
S'50'
p64
tp65
tp66
Rp67
g1
(g12
g3
(F0.36213043478260876
F0.07505591196074149
F0.5377717391304347
F0.15652173913043477
tp68
tp69
Rp70
sg1
(g2
g3
(S'1.00000000'
p71
S'0.50000000'
p72
S'1.000'
p73
S'50'
p74
S'50'
p75
tp76
tp77
Rp78
g1
(g12
g3
(F0.2004076086956522
F0.06753353792051223
F0.42527173913043476
F0.14456521739130435
tp79
tp80
Rp81
sg1
(g2
g3
(S'1.00000000'
p82
S'16.00000000'
p83
S'1.000'
p84
S'50'
p85
S'50'
p86
tp87
tp88
Rp89
g1
(g12
g3
(F0.3789076086956522
F0.05467452571619559
F0.45054347826086955
F0.1673913043478261
tp90
tp91
Rp92
sg1
(g2
g3
(S'1.00000000'
p93
S'4.00000000'
p94
S'1.000'
p95
S'50'
p96
S'50'
p97
tp98
tp99
Rp100
g1
(g12
g3
(F0.29093478260869565
F0.07319052475182178
F0.479891304347826
F0.15489130434782608
tp101
tp102
Rp103
sg1
(g2
g3
(S'1.00000000'
p104
S'0.06250000'
p105
S'1.000'
p106
S'50'
p107
S'50'
p108
tp109
tp110
Rp111
g1
(g12
g3
(F0.3710217391304348
F0.0356342191595073
F0.4633152173913043
F0.31983695652173916
tp112
tp113
Rp114
sg1
(g2
g3
(S'1.00000000'
p115
S'64.00000000'
p116
S'1.000'
p117
S'50'
p118
S'50'
p119
tp120
tp121
Rp122
g1
(g12
g3
(F0.40378804347826086
F0.041694142779839585
F0.6029891304347825
F0.34809782608695655
tp123
tp124
Rp125
sg1
(g2
g3
(S'1.00000000'
p126
S'2.00000000'
p127
S'1.000'
p128
S'50'
p129
S'50'
p130
tp131
tp132
Rp133
g1
(g12
g3
(F0.25073369565217385
F0.0691040982824909
F0.43777173913043477
F0.13695652173913042
tp134
tp135
Rp136
sg1
(g2
g3
(S'1.00000000'
p137
S'0.00781250'
p138
S'1.000'
p139
S'50'
p140
S'50'
p141
tp142
tp143
Rp144
g1
(g12
g3
(F0.37303260869565213
F0.05385021655670045
F0.4934782608695653
F0.29836956521739133
tp145
tp146
Rp147
sg1
(g2
g3
(S'1.00000000'
p148
S'1.00000000'
p149
S'1.000'
p150
S'50'
p151
S'50'
p152
tp153
tp154
Rp155
g1
(g12
g3
(F0.2023641304347826
F0.059031945217267866
F0.41766304347826083
F0.1388586956521739
tp156
tp157
Rp158
sg1
(g2
g3
(S'1.00000000'
p159
S'0.25000000'
p160
S'1.000'
p161
S'50'
p162
S'50'
p163
tp164
tp165
Rp166
g1
(g12
g3
(F0.23210326086956523
F0.06534512082950439
F0.41385869565217404
F0.16657608695652174
tp167
tp168
Rp169
s.