(dp0
ccopy_reg
_reconstructor
p1
(cscripts.archipelago_tuples
Parameters
p2
c__builtin__
tuple
p3
(S'1.00000000'
p4
S'4.00000000'
p5
S'1.000'
p6
S'15'
p7
S'5'
p8
S'250'
p9
tp10
tp11
Rp12
g1
(cscripts.archipelago_tuples
Metrics
p13
g3
(cnumpy.core.multiarray
scalar
p14
(cnumpy
dtype
p15
(S'f8'
p16
I0
I1
tp17
Rp18
(I3
S'<'
p19
NNNI-1
I-1
I0
tp20
bS'\xd3\xe3\xa8\x10\xcc\x9a\xc5?'
p21
tp22
Rp23
g14
(g18
S'`N\xaf\xce:)}?'
p24
tp25
Rp26
g14
(g18
S'\xaf\r\xd2\xde\xc0\xc8`?'
p27
tp28
Rp29
g14
(g18
S'\xb8#Q\xbe\xb0\xdd;?'
p30
tp31
Rp32
F0.1725988402224202
F0.16535089985734752
tp33
tp34
Rp35
sg1
(g2
g3
(S'1.00000000'
p36
S'4.00000000'
p37
S'1.000'
p38
S'10'
p39
g8
S'250'
p40
tp41
tp42
Rp43
g1
(g13
g3
(g14
(g18
S'~\xbb\xa5\xe0-\xb1\xc5?'
p44
tp45
Rp46
g14
(g18
S'\xbd\xa2E\x82\xfa^s?'
p47
tp48
Rp49
g14
(g18
S'\xc2J6\xa1\xb4}l?'
p50
tp51
Rp52
g14
(g18
S'\xe8\xcbT\xd9R\xe9G?'
p53
tp54
Rp55
F0.17545526588357413
F0.1639384629137469
tp56
tp57
Rp58
sg1
(g2
g3
(S'1.00000000'
p59
S'4.00000000'
p60
S'1.000'
p61
g8
g8
S'250'
p62
tp63
tp64
Rp65
g1
(g13
g3
(g14
(g18
S'O\xd1\x91\xcbe`\xc6?'
p66
tp67
Rp68
g14
(g18
S'E\xc5\x0f\x8a\xc7\x8e\x81?'
p69
tp70
Rp71
g14
(g18
S':\x1e\x9e\x9a\x15\xecm?'
p72
tp73
Rp74
g14
(g18
S'\x9b*|\xf8\xbfYX?'
p75
tp76
Rp77
F0.18122945740001314
F0.1709409859240992
tp78
tp79
Rp80
sg1
(g2
g3
(S'1.00000000'
p81
S'4.00000000'
p82
S'1.000'
p83
S'20'
p84
g8
S'250'
p85
tp86
tp87
Rp88
g1
(g13
g3
(g14
(g18
S'm\x1c\xe6\xea\xc2\x8e\xc5?'
p89
tp90
Rp91
g14
(g18
S'\xd9\xa4p\xdb\x954s?'
p92
tp93
Rp94
g14
(g18
S'\xe0\xc4}\x82_S^?'
p95
tp96
Rp97
g14
(g18
S'\xbe\xcb\xca\xf8\xe0\xe4F?'
p98
tp99
Rp100
F0.17176989421386107
F0.16516686041555553
tp101
tp102
Rp103
s.