(dp0
ccopy_reg
_reconstructor
p1
(cscripts.archipelago_tuples
Parameters
p2
c__builtin__
tuple
p3
(S'1.00000000'
p4
S'0.25000000'
p5
S'1.000'
p6
S'25'
p7
S'5'
p8
S'100'
p9
tp10
tp11
Rp12
g1
(cscripts.archipelago_tuples
Metrics
p13
g3
(cnumpy.core.multiarray
scalar
p14
(cnumpy
dtype
p15
(S'f8'
p16
I0
I1
tp17
Rp18
(I3
S'<'
p19
NNNI-1
I-1
I0
tp20
bS'\x06\xe9\xe5\x1e\x9f\xbf\xd2?'
p21
tp22
Rp23
g14
(g18
S'\xe9t&\xaf\n\x16\x9e?'
p24
tp25
Rp26
g14
(g18
S'\xe24\xd8// \x8a?'
p27
tp28
Rp29
g14
(g18
S'\x12\xa2TX\x8c]x?'
p30
tp31
Rp32
F0.3092391304347826
F0.27527173913043473
tp33
tp34
Rp35
sg1
(g2
g3
(S'1.00000000'
p36
S'0.25000000'
p37
S'1.000'
p38
S'10'
p39
g8
S'100'
p40
tp41
tp42
Rp43
g1
(g13
g3
(g14
(g18
S'krAS{U\xce?'
p44
tp45
Rp46
g14
(g18
S'\xac"8x&H\x9d?'
p47
tp48
Rp49
g14
(g18
S'\xbeI4\x04\xa2\r\xa1?'
p50
tp51
Rp52
g14
(g18
S'\x806\x1e\xe2\xe7\xda\x93?'
p53
tp54
Rp55
F0.26603260869565215
F0.17690217391304347
tp56
tp57
Rp58
sg1
(g2
g3
(S'1.00000000'
p59
S'0.25000000'
p60
S'1.000'
p61
S'20'
p62
g8
S'100'
p63
tp64
tp65
Rp66
g1
(g13
g3
(g14
(g18
S'\x1e\x03\xc7\x7f\xdfv\xd0?'
p67
tp68
Rp69
g14
(g18
S'i\x94*\xb8\xb6\xa4\xa6?'
p70
tp71
Rp72
g14
(g18
S'\xc2\xdd\x86,\x1aK\x91?'
p73
tp74
Rp75
g14
(g18
S'\xdbd\x1a\x98\xf1\xe5\x81?'
p76
tp77
Rp78
F0.27961956521739134
F0.22989130434782606
tp79
tp80
Rp81
sg1
(g2
g3
(S'1.00000000'
p82
S'0.25000000'
p83
S'1.000'
p84
S'15'
p85
g8
S'100'
p86
tp87
tp88
Rp89
g1
(g13
g3
(g14
(g18
S'\xcb7(E\xc6h\xd4?'
p90
tp91
Rp92
g14
(g18
S';\xb5\xff\xbd\xcf\xb0\x97?'
p93
tp94
Rp95
g14
(g18
S'\xdb\xdb\xcf\x03;I\x93?'
p96
tp97
Rp98
g14
(g18
S'\xcbkN4m\xc5{?'
p99
tp100
Rp101
F0.34538043478260866
F0.29891304347826086
tp102
tp103
Rp104
sg1
(g2
g3
(S'1.00000000'
p105
S'0.25000000'
p106
S'1.000'
p107
S'30'
p108
g8
S'100'
p109
tp110
tp111
Rp112
g1
(g13
g3
(g14
(g18
S'\nY\xc8B\x16\xb2\xd0?'
p113
tp114
Rp115
g14
(g18
S'`S\xe3(\x16~\xac?'
p116
tp117
Rp118
g14
(g18
S'~\x01\x7f\xa0\xbf\xa9\x8f?'
p119
tp120
Rp121
g14
(g18
S'\x15\xa9\xd4p\xfa\x97v?'
p122
tp123
Rp124
F0.278804347826087
F0.23913043478260873
tp125
tp126
Rp127
sg1
(g2
g3
(S'1.00000000'
p128
S'0.25000000'
p129
S'1.000'
p130
g8
g8
S'100'
p131
tp132
tp133
Rp134
g1
(g13
g3
(g14
(g18
S'\xae\x88\xf3\xe3\x00\x82\xd0?'
p135
tp136
Rp137
g14
(g18
S'\x92\xdb\xa7\xd4Zb\xa5?'
p138
tp139
Rp140
g14
(g18
S'\xe2/\xec"\xbee\xa7?'
p141
tp142
Rp143
g14
(g18
S'\xd3$D\xbc\x18\x1b\x96?'
p144
tp145
Rp146
F0.297554347826087
F0.1766304347826087
tp147
tp148
Rp149
s.