(dp0
ccopy_reg
_reconstructor
p1
(cscripts.archipelago_tuples
Parameters
p2
c__builtin__
tuple
p3
(S'1.00000000'
p4
S'0.06250000'
p5
S'1.000'
p6
S'1'
p7
g7
S'500'
p8
tp9
tp10
Rp11
g1
(cscripts.archipelago_tuples
Metrics
p12
g3
(cnumpy.core.multiarray
scalar
p13
(cnumpy
dtype
p14
(S'f8'
p15
I0
I1
tp16
Rp17
(I3
S'<'
p18
NNNI-1
I-1
I0
tp19
bS'\xcd\xcc\xcc\xcc\xcc\xcc\xc4?'
p20
tp21
Rp22
g13
(g17
S'\x00\x1c\xf0\xaf\x07\x97\x91?'
p23
tp24
Rp25
F0.0
F0.1625
tp26
tp27
Rp28
sg1
(g2
g3
(S'1.00000000'
p29
S'0.06250000'
p30
S'1.000'
p31
S'2'
p32
g32
S'500'
p33
tp34
tp35
Rp36
g1
(g12
g3
(g13
(g17
S'\xfe\xba\xa4\xf2a\xdc\xc3?'
p37
tp38
Rp39
g13
(g17
S'@\x07z2k\x8f\x92?'
p40
tp41
Rp42
F0.0
F0.15516304347826088
tp43
tp44
Rp45
sg1
(g2
g3
(S'1.00000000'
p46
S'0.06250000'
p47
S'1.000'
p48
S'3'
p49
g49
S'500'
p50
tp51
tp52
Rp53
g1
(g12
g3
(g13
(g17
S'333333\xc3?'
p54
tp55
Rp56
g13
(g17
S'$\xf9\xb8\x0b\x93\xbb\x90?'
p57
tp58
Rp59
F0.0
F0.15
tp60
tp61
Rp62
sg1
(g2
g3
(S'1.00000000'
p63
S'0.06250000'
p64
S'1.000'
p65
S'4'
p66
g66
S'500'
p67
tp68
tp69
Rp70
g1
(g12
g3
(g13
(g17
S'\x15m5x\x8e@\xc5?'
p71
tp72
Rp73
g13
(g17
S'\x1a$s\x8bnm\x8f?'
p74
tp75
Rp76
F0.0
F0.1660326086956522
tp77
tp78
Rp79
s.