(dp0
ccopy_reg
_reconstructor
p1
(cscripts.archipelago_tuples
Parameters
p2
c__builtin__
tuple
p3
(S'1.00000000'
p4
S'0.25000000'
p5
S'1.000'
p6
S'30'
p7
S'4'
p8
S'61'
p9
tp10
tp11
Rp12
g1
(cscripts.archipelago_tuples
Metrics
p13
g3
(F0.1902536231884058
F0.01761000979372434
F0.21983695652173912
F0.14103260869565215
tp14
tp15
Rp16
sg1
(g2
g3
(S'1.00000000'
p17
S'0.25000000'
p18
S'1.000'
p19
S'30'
p20
S'7'
p21
S'61'
p22
tp23
tp24
Rp25
g1
(g13
g3
(F0.16032608695652176
F0.024785744768036376
F0.21548913043478263
F0.13369565217391305
tp26
tp27
Rp28
sg1
(g2
g3
(S'1.00000000'
p29
S'0.25000000'
p30
S'1.000'
p31
S'30'
p32
S'3'
p33
S'61'
p34
tp35
tp36
Rp37
g1
(g13
g3
(F0.13383152173913043
F0.006707376895408608
F0.14619565217391306
F0.12418478260869564
tp38
tp39
Rp40
sg1
(g2
g3
(S'1.00000000'
p41
S'0.25000000'
p42
S'1.000'
p43
S'30'
p44
S'6'
p45
S'61'
p46
tp47
tp48
Rp49
g1
(g13
g3
(F0.22063405797101449
F0.06335049835027085
F0.3279891304347826
F0.15054347826086956
tp50
tp51
Rp52
sg1
(g2
g3
(S'1.00000000'
p53
S'0.25000000'
p54
S'1.000'
p55
S'30'
p56
S'9'
p57
S'61'
p58
tp59
tp60
Rp61
g1
(g13
g3
(F0.20701086956521736
F0.02846696651320083
F0.24483695652173915
F0.1595108695652174
tp62
tp63
Rp64
sg1
(g2
g3
(S'1.00000000'
p65
S'0.25000000'
p66
S'1.000'
p67
S'30'
p68
S'2'
p69
S'61'
p70
tp71
tp72
Rp73
g1
(g13
g3
(F0.16288043478260866
F0.010262115694808513
F0.17907608695652175
F0.14375
tp74
tp75
Rp76
sg1
(g2
g3
(S'1.00000000'
p77
S'0.25000000'
p78
S'1.000'
p79
S'30'
p80
S'10'
p81
S'61'
p82
tp83
tp84
Rp85
g1
(g13
g3
(F0.22132246376811598
F0.07633370657591036
F0.4176630434782609
F0.14130434782608697
tp86
tp87
Rp88
sg1
(g2
g3
(S'1.00000000'
p89
S'0.25000000'
p90
S'1.000'
p91
S'30'
p92
S'5'
p93
S'61'
p94
tp95
tp96
Rp97
g1
(g13
g3
(F0.17693840579710146
F0.035024361032319096
F0.27201086956521736
F0.13668478260869565
tp98
tp99
Rp100
sg1
(g2
g3
(S'1.00000000'
p101
S'0.25000000'
p102
S'1.000'
p103
S'30'
p104
S'1'
p105
S'61'
p106
tp107
tp108
Rp109
g1
(g13
g3
(F0.13543478260869563
F0.005275047892164126
F0.1576086956521739
F0.12663043478260871
tp110
tp111
Rp112
sg1
(g2
g3
(S'1.00000000'
p113
S'0.25000000'
p114
S'1.000'
p115
S'30'
p116
S'8'
p117
S'61'
p118
tp119
tp120
Rp121
g1
(g13
g3
(F0.19121376811594204
F0.03433703279324776
F0.25380434782608696
F0.14048913043478262
tp122
tp123
Rp124
s.