(dp0
ccopy_reg
_reconstructor
p1
(cscripts.archipelago_tuples
Parameters
p2
c__builtin__
tuple
p3
(S'1.00000000'
p4
S'2.00000000'
p5
S'1.000'
p6
S'10'
p7
S'5'
p8
tp9
tp10
Rp11
g1
(cscripts.archipelago_tuples
Metrics
p12
g3
(F0.1744082519001086
F0.22438646824524627
F0.5692725298588492
F0.0
tp13
tp14
Rp15
sg1
(g2
g3
(S'1.00000000'
p16
S'4.00000000'
p17
S'1.000'
p18
S'10'
p19
g8
tp20
tp21
Rp22
g1
(g12
g3
(F0.49550488599348536
F0.13745255628966427
F0.6167209554831706
F0.2682953311617807
tp23
tp24
Rp25
sg1
(g2
g3
(S'1.00000000'
p26
S'0.50000000'
p27
S'1.000'
p28
S'10'
p29
g8
tp30
tp31
Rp32
g1
(g12
g3
(F0.0
F0.0
F0.0
F0.0
tp33
tp34
Rp35
sg1
(g2
g3
(S'1.00000000'
p36
S'0.25000000'
p37
S'1.000'
p38
S'10'
p39
g8
tp40
tp41
Rp42
g1
(g12
g3
(F0.0
F0.0
F0.0
F0.0
tp43
tp44
Rp45
sg1
(g2
g3
(S'1.00000000'
p46
S'1.00000000'
p47
S'1.000'
p48
S'10'
p49
g8
tp50
tp51
Rp52
g1
(g12
g3
(F0.0
F0.0
F0.0
F0.0
tp53
tp54
Rp55
s.