(dp0
ccopy_reg
_reconstructor
p1
(cscripts.archipelago_tuples
Parameters
p2
c__builtin__
tuple
p3
(S'1.00000000'
p4
S'0.12500000'
p5
S'1.000'
p6
S'10'
p7
S'10'
p8
tp9
tp10
Rp11
g1
(cscripts.archipelago_tuples
Metrics
p12
g3
(F0.17527173913043476
F0.018663986685865767
F0.21005434782608695
F0.14347826086956522
tp13
tp14
Rp15
sg1
(g2
g3
(S'1.00000000'
p16
S'0.12500000'
p17
S'1.000'
p18
S'20'
p19
S'10'
p20
tp21
tp22
Rp23
g1
(g12
g3
(F0.1902173913043478
F0.043223047417793384
F0.2915760869565217
F0.14048913043478262
tp24
tp25
Rp26
sg1
(g2
g3
(S'1.00000000'
p27
S'0.12500000'
p28
S'1.000'
p29
S'30'
p30
S'10'
p31
tp32
tp33
Rp34
g1
(g12
g3
(F0.18356884057971015
F0.02512074389021111
F0.2532608695652174
F0.1467391304347826
tp35
tp36
Rp37
sg1
(g2
g3
(S'1.00000000'
p38
S'0.12500000'
p39
S'1.000'
p40
S'40'
p41
S'10'
p42
tp43
tp44
Rp45
g1
(g12
g3
(F0.1812364130434783
F0.030384006065506126
F0.26902173913043476
F0.1391304347826087
tp46
tp47
Rp48
s.