(dp0
ccopy_reg
_reconstructor
p1
(cscripts.archipelago_tuples
Parameters
p2
c__builtin__
tuple
p3
(S'1.00000000'
p4
S'1.00000000'
p5
S'1.000'
p6
S'10'
p7
S'1'
p8
S'300'
p9
tp10
tp11
Rp12
g1
(cscripts.archipelago_tuples
Metrics
p13
g3
(cnumpy.core.multiarray
scalar
p14
(cnumpy
dtype
p15
(S'f8'
p16
I0
I1
tp17
Rp18
(I3
S'<'
p19
NNNI-1
I-1
I0
tp20
bS'\x00@\x10\x1c\xb6\x82\xc6?'
p21
tp22
Rp23
g14
(g18
S'\x89t \xd1\xdb{p?'
p24
tp25
Rp26
g14
(g18
S'\x1eq*\xda\x18\x9b\x80?'
p27
tp28
Rp29
g14
(g18
S'\xb8~E\xd1\x9e\xf7I?'
p30
tp31
Rp32
F0.19157901446817627
F0.16353934145997392
tp33
tp34
Rp35
sg1
(g2
g3
(S'1.00000000'
p36
S'0.03125000'
p37
S'1.000'
p38
S'10'
p39
g8
S'300'
p40
tp41
tp42
Rp43
g1
(g13
g3
(g14
(g18
S'\xc3\xa0^ke\xaa\xc8?'
p44
tp45
Rp46
g14
(g18
S'3\x0e\xf3\xaf\x19\xc0u?'
p47
tp48
Rp49
g14
(g18
S'\x98k\xd8\xd6QH\x89?'
p50
tp51
Rp52
g14
(g18
S'V\x05"\x00\xce\x14_?'
p53
tp54
Rp55
F0.21445948209073787
F0.17431921342728837
tp56
tp57
Rp58
sg1
(g2
g3
(S'1.00000000'
p59
S'128.00000000'
p60
S'1.000'
p61
S'10'
p62
g8
S'300'
p63
tp64
tp65
Rp66
g1
(g13
g3
(g14
(g18
S'%;\xcf\xe5\xd7\xd2\xce?'
p67
tp68
Rp69
g14
(g18
S'7\xc1z\x9b\xa2\x96\x85?'
p70
tp71
Rp72
g14
(g18
S'\x00\x00\x00\x00\x00\x00\x00\x00'
p73
tp74
Rp75
g14
(g18
S'\x00\x00\x00\x00\x00\x00\x00\x00'
p76
tp77
Rp78
F0.24080942841688927
F0.24080942841688927
tp79
tp80
Rp81
sg1
(g2
g3
(S'1.00000000'
p82
S'2.00000000'
p83
S'1.000'
p84
S'10'
p85
g8
S'300'
p86
tp87
tp88
Rp89
g1
(g13
g3
(g14
(g18
S'\xa6\xd3\xac\x87\xe9\x13\xc6?'
p90
tp91
Rp92
g14
(g18
S"g\x8dS'\x89<{?"
p93
tp94
Rp95
g14
(g18
S'\x08&\x08\x07C\xab{?'
p96
tp97
Rp98
g14
(g18
S'\x8f\xbdz\xe0\x98\x7fL?'
p99
tp100
Rp101
F0.1836863372709243
F0.16307889867146852
tp102
tp103
Rp104
sg1
(g2
g3
(S'1.00000000'
p105
S'0.00781250'
p106
S'1.000'
p107
S'10'
p108
g8
S'300'
p109
tp110
tp111
Rp112
g1
(g13
g3
(g14
(g18
S'\x97e\xb6\xe7\x83\xae\xc8?'
p113
tp114
Rp115
g14
(g18
S"i\x01'n\xa2\xeep?"
p116
tp117
Rp118
g14
(g18
S'\xa6\x03\xae\x8c\x84\x10\x8f?'
p119
tp120
Rp121
g14
(g18
S'\xea\xf1\xdd5\xdcLf?'
p122
tp123
Rp124
F0.21894277605821974
F0.17072542299745247
tp125
tp126
Rp127
sg1
(g2
g3
(S'1.00000000'
p128
S'4.00000000'
p129
S'1.000'
p130
S'10'
p131
g8
S'300'
p132
tp133
tp134
Rp135
g1
(g13
g3
(g14
(g18
S"\x10<\x98\xa9'<\xc6?"
p136
tp137
Rp138
g14
(g18
S'Y\xd1\x02f2\xe4v?'
p139
tp140
Rp141
g14
(g18
S'R\xf1Q\xefbL\x80?'
p142
tp143
Rp144
g14
(g18
S'6qPXe\r`?'
p145
tp146
Rp147
F0.19185563469797426
F0.16350823288188962
tp148
tp149
Rp150
sg1
(g2
g3
(S'1.00000000'
p151
S'0.06250000'
p152
S'1.000'
p153
S'10'
p154
g8
S'300'
p155
tp156
tp157
Rp158
g1
(g13
g3
(g14
(g18
S'\xeb\x96\x94i\xca\xfd\xc7?'
p159
tp160
Rp161
g14
(g18
S'\x91-\rQ\xc6\xbdu?'
p162
tp163
Rp164
g14
(g18
S'FW\xbae\x88v\x90?'
p165
tp166
Rp167
g14
(g18
S'7\xfe\xa3\x1bv\xfaf?'
p168
tp169
Rp170
F0.22557628664475454
F0.1715856850374812
tp171
tp172
Rp173
sg1
(g2
g3
(S'1.00000000'
p174
S'16.00000000'
p175
S'1.000'
p176
S'10'
p177
g8
S'300'
p178
tp179
tp180
Rp181
g1
(g13
g3
(g14
(g18
S'U\xd2\xe3\x04x\xe4\xc9?'
p182
tp183
Rp184
g14
(g18
S'/IT4\xe9\xd6z?'
p185
tp186
Rp187
g14
(g18
S'\xc3\xd4\x8eg\xd0\xb4\x90?'
p188
tp189
Rp190
g14
(g18
S'V\x8d\xf7Be\xbfN?'
p191
tp192
Rp193
F0.22892419766460298
F0.18181247685008814
tp194
tp195
Rp196
sg1
(g2
g3
(S'1.00000000'
p197
S'64.00000000'
p198
S'1.000'
p199
S'10'
p200
g8
S'300'
p201
tp202
tp203
Rp204
g1
(g13
g3
(g14
(g18
S'%;\xcf\xe5\xd7\xd2\xce?'
p205
tp206
Rp207
g14
(g18
S'\xac\rC$j#\x81?'
p208
tp209
Rp210
g14
(g18
S'\x00\x00\x00\x00\x00\x00\x00\x00'
p211
tp212
Rp213
g14
(g18
S'\x00\x00\x00\x00\x00\x00\x00\x00'
p214
tp215
Rp216
F0.24080942841688927
F0.24080942841688927
tp217
tp218
Rp219
sg1
(g2
g3
(S'1.00000000'
p220
S'256.00000000'
p221
S'1.000'
p222
S'10'
p223
g8
S'300'
p224
tp225
tp226
Rp227
g1
(g13
g3
(g14
(g18
S'\xba\xf7\x8f\xb7\xd9\xd2\xce?'
p228
tp229
Rp230
g14
(g18
S'3\xc4\x11\x93\xab\x8e\x80?'
p231
tp232
Rp233
g14
(g18
S'\x00\x00\x00\x00\x00\x00\x00\x00'
p234
tp235
Rp236
g14
(g18
S'\x00\x00\x00\x00\x00\x00\x00\x00'
p237
tp238
Rp239
F0.24080964529997378
F0.24080964529997378
tp240
tp241
Rp242
sg1
(g2
g3
(S'1.00000000'
p243
S'0.50000000'
p244
S'1.000'
p245
S'10'
p246
g8
S'300'
p247
tp248
tp249
Rp250
g1
(g13
g3
(g14
(g18
S'F\x01@\xbf6\xf6\xc5?'
p251
tp252
Rp253
g14
(g18
S't\xa7@\xee\x8d\x8bs?'
p254
tp255
Rp256
g14
(g18
S'6\xc4m\x07w\xc5~?'
p257
tp258
Rp259
g14
(g18
S'\xbf\x93(\xe2w\x93T?'
p260
tp261
Rp262
F0.18571310026637017
F0.16086714383459855
tp263
tp264
Rp265
sg1
(g2
g3
(S'1.00000000'
p266
S'8.00000000'
p267
S'1.000'
p268
S'10'
p269
g8
S'300'
p270
tp271
tp272
Rp273
g1
(g13
g3
(g14
(g18
S'r1+\xe5!\x93\xc7?'
p274
tp275
Rp276
g14
(g18
S'\x08\xa9\xc9\xe0\x03zx?'
p277
tp278
Rp279
g14
(g18
S'p\x8a\xfa>\xbc\x0f{?'
p280
tp281
Rp282
g14
(g18
S'(y\xa3\x16\t\x1cV?'
p283
tp284
Rp285
F0.19719940758856938
F0.17594710014114373
tp286
tp287
Rp288
sg1
(g2
g3
(S'1.00000000'
p289
S'0.01562500'
p290
S'1.000'
p291
S'10'
p292
g8
S'300'
p293
tp294
tp295
Rp296
g1
(g13
g3
(g14
(g18
S'fr5\xe3\x00\xbe\xc8?'
p297
tp298
Rp299
g14
(g18
S'QX&a\xa36t?'
p300
tp301
Rp302
g14
(g18
S'\xdd\xe9A\x1a\xe1\x14\x8b?'
p303
tp304
Rp305
g14
(g18
S'\x91\xf1N\xcc\xeb\x1fr?'
p306
tp307
Rp308
F0.2229652311898244
F0.17511772036641546
tp309
tp310
Rp311
sg1
(g2
g3
(S'1.00000000'
p312
S'0.25000000'
p313
S'1.000'
p314
S'10'
p315
g8
S'300'
p316
tp317
tp318
Rp319
g1
(g13
g3
(g14
(g18
S'\xe0(C\x91z\xcd\xc6?'
p320
tp321
Rp322
g14
(g18
S'\xc3\xdb\xd2\xd8i,k?'
p323
tp324
Rp325
g14
(g18
S',O\xb7\x0e\xf7Ty?'
p326
tp327
Rp328
g14
(g18
S'\xfa*\xea\xb7,dc?'
p329
tp330
Rp331
F0.1901049638691641
F0.16826876000962582
tp332
tp333
Rp334
sg1
(g2
g3
(S'1.00000000'
p335
S'0.00390625'
p336
S'1.000'
p337
S'10'
p338
g8
S'300'
p339
tp340
tp341
Rp342
g1
(g13
g3
(g14
(g18
S'|\xa8\xd2.\xd4\xbf\xc8?'
p343
tp344
Rp345
g14
(g18
S'\xd7R\xe8\xa35\xaau?'
p346
tp347
Rp348
g14
(g18
S'\xc7\xe7\xba\xd1\xdb\xba\x93?'
p349
tp350
Rp351
g14
(g18
S"1\x9aSv'\x06f?"
p352
tp353
Rp354
F0.22867882745837922
F0.17315194866622563
tp355
tp356
Rp357
sg1
(g2
g3
(S'1.00000000'
p358
S'0.12500000'
p359
S'1.000'
p360
S'10'
p361
g8
S'300'
p362
tp363
tp364
Rp365
g1
(g13
g3
(g14
(g18
S'{\x1b\xa5\xbe~.\xc7?'
p366
tp367
Rp368
g14
(g18
S'\xcfgoaR4u?'
p369
tp370
Rp371
g14
(g18
S"\x9dC\x1eP'.{?"
p372
tp373
Rp374
g14
(g18
S'\x14\x8a\x1fN\x01\xc0f?'
p375
tp376
Rp377
F0.1924999943421804
F0.17054202477521482
tp378
tp379
Rp380
sg1
(g2
g3
(S'1.00000000'
p381
S'32.00000000'
p382
S'1.000'
p383
S'10'
p384
g8
S'300'
p385
tp386
tp387
Rp388
g1
(g13
g3
(g14
(g18
S'\xe0k\xf6\xcfz\xf7\xcd?'
p389
tp390
Rp391
g14
(g18
S'\xc7\xe2X>|O\x86?'
p392
tp393
Rp394
g14
(g18
S'\xf4JB:J\x92\x80?'
p395
tp396
Rp397
g14
(g18
S"\x97\x94'\x1a<\xe3T?"
p398
tp399
Rp400
F0.24080991876125438
F0.21298539377292833
tp401
tp402
Rp403
s.