(dp0
ccopy_reg
_reconstructor
p1
(cscripts.archipelago_tuples
Parameters
p2
c__builtin__
tuple
p3
(S'1.00000000'
p4
S'0.25000000'
p5
S'1.000'
p6
S'30'
p7
S'20'
p8
S'110'
p9
tp10
tp11
Rp12
g1
(cscripts.archipelago_tuples
Metrics
p13
g3
(cnumpy.core.multiarray
scalar
p14
(cnumpy
dtype
p15
(S'f8'
p16
I0
I1
tp17
Rp18
(I3
S'<'
p19
NNNI-1
I-1
I0
tp20
bS'\xbe\xa8;\x06\x8e\xff\xcc?'
p21
tp22
Rp23
g14
(g18
S'2\xa3;\xd4W\xc9\xa3?'
p24
tp25
Rp26
F0.03286692194543827
F0.2625
tp27
tp28
Rp29
sg1
(g2
g3
(S'1.00000000'
p30
S'0.25000000'
p31
S'1.000'
p32
S'30'
p33
S'25'
p34
S'110'
p35
tp36
tp37
Rp38
g1
(g13
g3
(g14
(g18
S'\xa6$=4 \xb3\xcd?'
p39
tp40
Rp41
g14
(g18
S'\xf1Fb_\xcb\xbf\xa4?'
p42
tp43
Rp44
F0.0270302992974589
F0.26521739130434785
tp45
tp46
Rp47
sg1
(g2
g3
(S'1.00000000'
p48
S'0.25000000'
p49
S'1.000'
p50
S'30'
p51
S'1'
p52
S'110'
p53
tp54
tp55
Rp56
g1
(g13
g3
(g14
(g18
S'\xdc\x98\x82\xd0?\xba\xd0?'
p57
tp58
Rp59
g14
(g18
S'\xb4\xcfS\x90*\xf9\x9c?'
p60
tp61
Rp62
F0.006620882746986227
F0.27119565217391306
tp63
tp64
Rp65
sg1
(g2
g3
(S'1.00000000'
p66
S'0.25000000'
p67
S'1.000'
p68
S'30'
p69
S'30'
p70
S'110'
p71
tp72
tp73
Rp74
g1
(g13
g3
(g14
(g18
S'hj\xaf\n\x18\xb6\xcf?'
p75
tp76
Rp77
g14
(g18
S'N$"b\xca\xf8\xa5?'
p78
tp79
Rp80
F0.04689352798100529
F0.30108695652173906
tp81
tp82
Rp83
sg1
(g2
g3
(S'1.00000000'
p84
S'0.25000000'
p85
S'1.000'
p86
S'30'
p87
S'15'
p88
S'110'
p89
tp90
tp91
Rp92
g1
(g13
g3
(g14
(g18
S'pT\xd30\x83|\xcf?'
p93
tp94
Rp95
g14
(g18
S'\xeeL\x88\xbdj=\x9d?'
p96
tp97
Rp98
F0.041243007522093755
F0.28994565217391305
tp99
tp100
Rp101
sg1
(g2
g3
(S'1.00000000'
p102
S'0.25000000'
p103
S'1.000'
p104
S'30'
p105
S'10'
p106
S'110'
p107
tp108
tp109
Rp110
g1
(g13
g3
(g14
(g18
S'7\xd0i\x03\x9d6\xd1?'
p111
tp112
Rp113
g14
(g18
S'\x04\xe8#\x84L+\xa3?'
p114
tp115
Rp116
F0.023304167432338024
F0.30163043478260876
tp117
tp118
Rp119
sg1
(g2
g3
(S'1.00000000'
p120
S'0.25000000'
p121
S'1.000'
p122
S'30'
p123
S'5'
p124
S'110'
p125
tp126
tp127
Rp128
g1
(g13
g3
(g14
(g18
S'\xfd\xf7m\xb7\x9c`\xd0?'
p129
tp130
Rp131
g14
(g18
S'\xa0f\xa4\x1b\xaa\xe1\x9c?'
p132
tp133
Rp134
F0.009215407956795462
F0.27717391304347827
tp135
tp136
Rp137
s.