(dp0
ccopy_reg
_reconstructor
p1
(cscripts.archipelago_tuples
Parameters
p2
c__builtin__
tuple
p3
(S'1.00000000'
p4
S'4.00000000'
p5
S'0.125'
p6
S'20'
p7
S'20'
p8
S'50'
p9
tp10
tp11
Rp12
g1
(cscripts.archipelago_tuples
Metrics
p13
g3
(cnumpy.core.multiarray
scalar
p14
(cnumpy
dtype
p15
(S'f8'
p16
I0
I1
tp17
Rp18
(I3
S'<'
p19
NNNI-1
I-1
I0
tp20
bS'\xed\xda$v~\xc8\xca?'
p21
tp22
Rp23
g14
(g18
S'\x1dk@\xba\x19\xaf\x85?'
p24
tp25
Rp26
F0.014796968450164144
F0.22511524978519143
tp27
tp28
Rp29
sg1
(g2
g3
(S'1.00000000'
p30
S'4.00000000'
p31
S'0.250'
p32
S'20'
p33
S'20'
p34
S'50'
p35
tp36
tp37
Rp38
g1
(g13
g3
(g14
(g18
S'P}\xe8\xf4\x1fx\xcb?'
p39
tp40
Rp41
g14
(g18
S'M\xb6t\xb0 \x9d\x81?'
p42
tp43
Rp44
F0.013538632500131886
F0.22769591331918626
tp45
tp46
Rp47
sg1
(g2
g3
(S'1.00000000'
p48
S'4.00000000'
p49
S'0.031'
p50
S'20'
p51
S'20'
p52
S'50'
p53
tp54
tp55
Rp56
g1
(g13
g3
(g14
(g18
S'k\xf5\xf1\xe8wY\xcf?'
p57
tp58
Rp59
g14
(g18
S'T\x1fVl)`\x9f?'
p60
tp61
Rp62
F0.017559203698396746
F0.27683550983366767
tp63
tp64
Rp65
sg1
(g2
g3
(S'1.00000000'
p66
S'4.00000000'
p67
S'0.063'
p68
S'20'
p69
S'20'
p70
S'50'
p71
tp72
tp73
Rp74
g1
(g13
g3
(g14
(g18
S'\xfaL2\xe1\xa7T\xcf?'
p75
tp76
Rp77
g14
(g18
S'a{\xf5\xc9_\x1d\xa6?'
p78
tp79
Rp80
F0.009762435938882019
F0.25763944262178834
tp81
tp82
Rp83
sg1
(g2
g3
(S'1.00000000'
p84
S'4.00000000'
p85
S'1.000'
p86
S'20'
p87
S'20'
p88
S'50'
p89
tp90
tp91
Rp92
g1
(g13
g3
(g14
(g18
S'\xd8>\xe0Z\x08\xba\xca?'
p93
tp94
Rp95
g14
(g18
S'\xb0\xde\xf3w\x1e|z?'
p96
tp97
Rp98
F0.013421170257882985
F0.22176867778264767
tp99
tp100
Rp101
sg1
(g2
g3
(S'1.00000000'
p102
S'4.00000000'
p103
S'0.500'
p104
S'20'
p105
S'20'
p106
S'50'
p107
tp108
tp109
Rp110
g1
(g13
g3
(g14
(g18
S'V\x90\xf9_\x8c\xd4\xca?'
p111
tp112
Rp113
g14
(g18
S'\xe48C\x82j\x04\x88?'
p114
tp115
Rp116
F0.011241034923921086
F0.22127708869726065
tp117
tp118
Rp119
s.