(dp0
ccopy_reg
_reconstructor
p1
(cscripts.archipelago_tuples
Parameters
p2
c__builtin__
tuple
p3
(S'1.00000000'
p4
S'0.25000000'
p5
S'1.000'
p6
S'50'
p7
S'40'
p8
tp9
tp10
Rp11
g1
(cscripts.archipelago_tuples
Metrics
p12
g3
(F0.3105271739130435
F0.06258721503502379
F0.5010869565217392
F0.21739130434782608
tp13
tp14
Rp15
sg1
(g2
g3
(S'1.00000000'
p16
S'0.25000000'
p17
S'1.000'
p18
S'50'
p19
S'30'
p20
tp21
tp22
Rp23
g1
(g12
g3
(F0.27612500000000006
F0.08505893395539214
F0.5513586956521739
F0.17364130434782607
tp24
tp25
Rp26
sg1
(g2
g3
(S'1.00000000'
p27
S'0.25000000'
p28
S'1.000'
p29
S'50'
p30
S'20'
p31
tp32
tp33
Rp34
g1
(g12
g3
(F0.3044021739130435
F0.08120099725513595
F0.5513586956521739
F0.20081521739130434
tp35
tp36
Rp37
sg1
(g2
g3
(S'1.00000000'
p38
S'0.25000000'
p39
S'1.000'
p40
S'50'
p41
S'2'
p42
tp43
tp44
Rp45
g1
(g12
g3
(F0.16446195652173912
F0.01458457160272944
F0.20923913043478262
F0.14755434782608695
tp46
tp47
Rp48
sg1
(g2
g3
(S'1.00000000'
p49
S'0.25000000'
p50
S'1.000'
p51
S'50'
p52
S'10'
p53
tp54
tp55
Rp56
g1
(g12
g3
(F0.22975543478260868
F0.035374865644491035
F0.28641304347826085
F0.18423913043478263
tp57
tp58
Rp59
sg1
(g2
g3
(S'1.00000000'
p60
S'0.25000000'
p61
S'1.000'
p62
S'50'
p63
S'50'
p64
tp65
tp66
Rp67
g1
(g12
g3
(F0.3118043478260869
F0.06053641800164862
F0.5057065217391304
F0.2402173913043478
tp68
tp69
Rp70
s.