(dp0
ccopy_reg
_reconstructor
p1
(cscripts.archipelago_tuples
Parameters
p2
c__builtin__
tuple
p3
(S'1.00000000'
p4
S'2.00000000'
p5
S'1.000'
p6
S'10'
p7
S'10'
p8
S'500'
p9
tp10
tp11
Rp12
g1
(cscripts.archipelago_tuples
Metrics
p13
g3
(cnumpy.core.multiarray
scalar
p14
(cnumpy
dtype
p15
(S'f8'
p16
I0
I1
tp17
Rp18
(I3
S'<'
p19
NNNI-1
I-1
I0
tp20
bS'\xb3\xb8?\xcc\xc0A\xc4?'
p21
tp22
Rp23
g14
(g18
S'\xc4B\xec\xafn&r?'
p24
tp25
Rp26
F0.0
F0.15825662587253006
tp27
tp28
Rp29
sg1
(g2
g3
(S'1.00000000'
p30
S'2.00000000'
p31
S'1.000'
p32
S'8'
p33
g33
S'500'
p34
tp35
tp36
Rp37
g1
(g13
g3
(g14
(g18
S'}+\xbe\x19Z\x9e\xc4?'
p38
tp39
Rp40
g14
(g18
S'Mu=~\x83cz?'
p41
tp42
Rp43
F0.0
F0.16108251816725874
tp44
tp45
Rp46
sg1
(g2
g3
(S'1.00000000'
p47
S'2.00000000'
p48
S'1.000'
p49
S'9'
p50
g50
S'500'
p51
tp52
tp53
Rp54
g1
(g13
g3
(g14
(g18
S'"\x03\xf6\xa6\x8d!\xc4?'
p55
tp56
Rp57
g14
(g18
S'\x113\xb2\xe8\xe6\xb9\x7f?'
p58
tp59
Rp60
F0.0
F0.157273966335219
tp61
tp62
Rp63
sg1
(g2
g3
(S'1.00000000'
p64
S'2.00000000'
p65
S'1.000'
p66
S'2'
p67
g67
S'500'
p68
tp69
tp70
Rp71
g1
(g13
g3
(g14
(g18
S'\xf6|U?\x82\xb8\xc4?'
p72
tp73
Rp74
g14
(g18
S'&\xd8\xfb>Ipu?'
p75
tp76
Rp77
F0.0
F0.1618807610748047
tp78
tp79
Rp80
sg1
(g2
g3
(S'1.00000000'
p81
S'2.00000000'
p82
S'1.000'
p83
S'5'
p84
g84
S'500'
p85
tp86
tp87
Rp88
g1
(g13
g3
(g14
(g18
S'\x1e\x14\xd9\xa8\x18w\xc4?'
p89
tp90
Rp91
g14
(g18
S'\xe8\xa8B\xeb\x7f\xe9z?'
p92
tp93
Rp94
F0.0
F0.15988453144578413
tp95
tp96
Rp97
sg1
(g2
g3
(S'1.00000000'
p98
S'2.00000000'
p99
S'1.000'
p100
S'7'
p101
g101
S'500'
p102
tp103
tp104
Rp105
g1
(g13
g3
(g14
(g18
S'\x0e\\\xca<\xf6a\xc4?'
p106
tp107
Rp108
g14
(g18
S'3c(\xde?{v?'
p109
tp110
Rp111
F0.0
F0.15923955887112168
tp112
tp113
Rp114
sg1
(g2
g3
(S'1.00000000'
p115
S'2.00000000'
p116
S'1.000'
p117
S'1'
p118
g118
S'500'
p119
tp120
tp121
Rp122
g1
(g13
g3
(g14
(g18
S'a\x06!\xdf\xdd\x8e\xc5?'
p123
tp124
Rp125
g14
(g18
S'\xaa\x1a\x8f\x7fA\xa4w?'
p126
tp127
Rp128
F0.0
F0.16842244524927977
tp129
tp130
Rp131
sg1
(g2
g3
(S'1.00000000'
p132
S'2.00000000'
p133
S'1.000'
p134
S'6'
p135
g135
S'500'
p136
tp137
tp138
Rp139
g1
(g13
g3
(g14
(g18
S'\xe4\x1a\x92,\xcfK\xc4?'
p140
tp141
Rp142
g14
(g18
S"H'\xb1\xc9\xc5\xb2y?"
p143
tp144
Rp145
F0.0
F0.15856351543717218
tp146
tp147
Rp148
sg1
(g2
g3
(S'1.00000000'
p149
S'2.00000000'
p150
S'1.000'
p151
S'4'
p152
g152
S'500'
p153
tp154
tp155
Rp156
g1
(g13
g3
(g14
(g18
S'j\xa4\x81\x94E\x93\xc4?'
p157
tp158
Rp159
g14
(g18
S'\xbc\xaf\xa4^\xe2:q?'
p160
tp161
Rp162
F0.0
F0.1607443785790424
tp163
tp164
Rp165
sg1
(g2
g3
(S'1.00000000'
p166
S'2.00000000'
p167
S'1.000'
p168
S'3'
p169
g169
S'500'
p170
tp171
tp172
Rp173
g1
(g13
g3
(g14
(g18
S'%I\x83\xff\x9e\xc9\xc4?'
p174
tp175
Rp176
g14
(g18
S'\xb8\x9f\xf1#9\x0cu?'
p177
tp178
Rp179
F0.0
F0.16240298725330962
tp180
tp181
Rp182
s.