(dp0
ccopy_reg
_reconstructor
p1
(cscripts.archipelago_tuples
Parameters
p2
c__builtin__
tuple
p3
(S'1.00000000'
p4
S'0.12500000'
p5
S'1.000'
p6
S'10'
p7
S'10'
p8
S'250'
p9
tp10
tp11
Rp12
g1
(cscripts.archipelago_tuples
Metrics
p13
g3
(cnumpy.core.multiarray
scalar
p14
(cnumpy
dtype
p15
(S'f8'
p16
I0
I1
tp17
Rp18
(I3
S'<'
p19
NNNI-1
I-1
I0
tp20
bS'\x84\x91;>\xa2\xcc\xc4?'
p21
tp22
Rp23
g14
(g18
S'\xcc\xbb{N\x8a\xfc}?'
p24
tp25
Rp26
F0.0
F0.16249492682176137
tp27
tp28
Rp29
sg1
(g2
g3
(S'1.00000000'
p30
S'4.00000000'
p31
S'1.000'
p32
S'10'
p33
S'10'
p34
S'250'
p35
tp36
tp37
Rp38
g1
(g13
g3
(g14
(g18
S'e\x0c\xd5\xf0l\xe6\xc5?'
p39
tp40
Rp41
g14
(g18
S'\x80\x85Nu\xd2\x1ex?'
p42
tp43
Rp44
F0.0
F0.17109452971826325
tp45
tp46
Rp47
sg1
(g2
g3
(S'1.00000000'
p48
S'16.00000000'
p49
S'1.000'
p50
S'10'
p51
S'10'
p52
S'250'
p53
tp54
tp55
Rp56
g1
(g13
g3
(g14
(g18
S'\x9a\xcfHSL)\xca?'
p57
tp58
Rp59
g14
(g18
S"8\xe7h\x03\xa6'|?"
p60
tp61
Rp62
F0.0
F0.20438531939146004
tp63
tp64
Rp65
sg1
(g2
g3
(S'1.00000000'
p66
S'1.00000000'
p67
S'1.000'
p68
S'10'
p69
S'10'
p70
S'250'
p71
tp72
tp73
Rp74
g1
(g13
g3
(g14
(g18
S'\x8eu(eg\xa7\xc4?'
p75
tp76
Rp77
g14
(g18
S'D\x16 \xfb\xbal}?'
p78
tp79
Rp80
F0.0
F0.1613587612090836
tp81
tp82
Rp83
sg1
(g2
g3
(S'1.00000000'
p84
S'256.00000000'
p85
S'1.000'
p86
S'10'
p87
S'10'
p88
S'250'
p89
tp90
tp91
Rp92
g1
(g13
g3
(g14
(g18
S'\xf3\xe0\x0e\x07\xd7\xd2\xce?'
p93
tp94
Rp95
g14
(g18
S'\xab<h\xaf&z\x81?'
p96
tp97
Rp98
F0.0
F0.24080932469019664
tp99
tp100
Rp101
sg1
(g2
g3
(S'1.00000000'
p102
S'0.50000000'
p103
S'1.000'
p104
S'10'
p105
S'10'
p106
S'250'
p107
tp108
tp109
Rp110
g1
(g13
g3
(g14
(g18
S'xM\x88\xb9?\x90\xc4?'
p111
tp112
Rp113
g14
(g18
S'3\xd12\x97\xb2\x86z?'
p114
tp115
Rp116
F0.0
F0.16065212783051286
tp117
tp118
Rp119
sg1
(g2
g3
(S'1.00000000'
p120
S'128.00000000'
p121
S'1.000'
p122
S'10'
p123
S'10'
p124
S'250'
p125
tp126
tp127
Rp128
g1
(g13
g3
(g14
(g18
S'\x8b\x9d\xcf\xd8\xd8\xd2\xce?'
p129
tp130
Rp131
g14
(g18
S'\xc1\xa4\xafGb8\x80?'
p132
tp133
Rp134
F0.0
F0.24080954157328124
tp135
tp136
Rp137
sg1
(g2
g3
(S'1.00000000'
p138
S'8.00000000'
p139
S'1.000'
p140
S'10'
p141
S'10'
p142
S'250'
p143
tp144
tp145
Rp146
g1
(g13
g3
(g14
(g18
S'\xce\xabw\xbe\xbeV\xc7?'
p147
tp148
Rp149
g14
(g18
S'/\xa1u\x11[\xb7w?'
p150
tp151
Rp152
F0.0
F0.18233475017708972
tp153
tp154
Rp155
sg1
(g2
g3
(S'1.00000000'
p156
S'0.25000000'
p157
S'1.000'
p158
S'10'
p159
S'10'
p160
S'250'
p161
tp162
tp163
Rp164
g1
(g13
g3
(g14
(g18
S'\xfcQ:\x1f\x1f{\xc4?'
p165
tp166
Rp167
g14
(g18
S'\x04\xd9X\x8b!7\x80?'
p168
tp169
Rp170
F0.0
F0.1600073721389349
tp171
tp172
Rp173
sg1
(g2
g3
(S'1.00000000'
p174
S'0.00390625'
p175
S'1.000'
p176
S'10'
p177
S'10'
p178
S'250'
p179
tp180
tp181
Rp182
g1
(g13
g3
(g14
(g18
S':\x8c\x15\xf9\xbc\xfd\xd7?'
p183
tp184
Rp185
g14
(g18
S'\xb0.j\xfbb(\xbd?'
p186
tp187
Rp188
F0.0
F0.37486194920183247
tp189
tp190
Rp191
sg1
(g2
g3
(S'1.00000000'
p192
S'32.00000000'
p193
S'1.000'
p194
S'10'
p195
S'10'
p196
S'250'
p197
tp198
tp199
Rp200
g1
(g13
g3
(g14
(g18
S'UY~W\xa9\xb5\xce?'
p201
tp202
Rp203
g14
(g18
S'<U\xef\xcc{n\x82?'
p204
tp205
Rp206
F0.0
F0.23991886875291848
tp207
tp208
Rp209
sg1
(g2
g3
(S'1.00000000'
p210
S'64.00000000'
p211
S'1.000'
p212
S'10'
p213
S'10'
p214
S'250'
p215
tp216
tp217
Rp218
g1
(g13
g3
(g14
(g18
S'\x88A\xd0m\xda\xd2\xce?'
p219
tp220
Rp221
g14
(g18
S'\x8fXP\xd5\xd6\x84s?'
p222
tp223
Rp224
F0.0
F0.2408097301672678
tp225
tp226
Rp227
sg1
(g2
g3
(S'1.00000000'
p228
S'2.00000000'
p229
S'1.000'
p230
S'1'
p231
g231
S'1000'
p232
tp233
tp234
Rp235
g1
(g13
g3
(g14
(g18
S'\xff\xbb\x99\xe4v\x87\xc8?'
p236
tp237
Rp238
g14
(g18
S'\xc7\xa9\xc6eZ*\x83?'
p239
tp240
Rp241
F0.0
F0.19163404619345667
tp242
tp243
Rp244
sg1
(g2
g3
(S'1.00000000'
p245
S'0.06250000'
p246
S'1.000'
p247
S'10'
p248
S'10'
p249
S'250'
p250
tp251
tp252
Rp253
g1
(g13
g3
(g14
(g18
S'/V\x16\x8e!\xb8\xc5?'
p254
tp255
Rp256
g14
(g18
S'/s\xe5\x9f\xc3\xab\x8a?'
p257
tp258
Rp259
F0.0
F0.1696817344460881
tp260
tp261
Rp262
sg1
(g2
g3
(S'1.00000000'
p263
S'0.00781250'
p264
S'1.000'
p265
S'10'
p266
S'10'
p267
S'250'
p268
tp269
tp270
Rp271
g1
(g13
g3
(g14
(g18
S'\xff\xec\x8b\x8fl\xa3\xd4?'
p272
tp273
Rp274
g14
(g18
S'\x04\xec\xac\xdd\xc0\x92\xb4?'
p275
tp276
Rp277
F0.0
F0.3224746133634681
tp278
tp279
Rp280
sg1
(g2
g3
(S'1.00000000'
p281
S'2.00000000'
p282
S'1.000'
p283
S'10'
p284
S'10'
p285
S'250'
p286
tp287
tp288
Rp289
g1
(g13
g3
(g14
(g18
S'\xfa\xeb$\xcb\xfb\x03\xc5?'
p290
tp291
Rp292
g14
(g18
S'~\xc7\xbe\xc0[\xc1y?'
p293
tp294
Rp295
F0.0
F0.1641840688624539
tp296
tp297
Rp298
sg1
(g2
g3
(S'1.00000000'
p299
S'0.03125000'
p300
S'1.000'
p301
S'10'
p302
S'10'
p303
S'250'
p304
tp305
tp306
Rp307
g1
(g13
g3
(g14
(g18
S'\xb3\xad\x996GO\xc8?'
p308
tp309
Rp310
g14
(g18
S'\xa6\xc9A<PF\x95?'
p311
tp312
Rp313
F0.0
F0.1899193779566822
tp314
tp315
Rp316
sg1
(g2
g3
(S'1.00000000'
p317
S'0.01562500'
p318
S'1.000'
p319
S'10'
p320
S'10'
p321
S'250'
p322
tp323
tp324
Rp325
g1
(g13
g3
(g14
(g18
S"'\n]qh\xf8\xd1?"
p326
tp327
Rp328
g14
(g18
S'\x88\x11\xaa\xc4\xf9\xb4\xbc?'
p329
tp330
Rp331
F0.0
F0.2807866198601538
tp332
tp333
Rp334
s.