(dp0
ccopy_reg
_reconstructor
p1
(cscripts.archipelago_tuples
Parameters
p2
c__builtin__
tuple
p3
(S'1.00000000'
p4
S'0.12500000'
p5
S'1.000'
p6
S'10'
p7
S'10'
p8
tp9
tp10
Rp11
g1
(cscripts.archipelago_tuples
Metrics
p12
g3
(F0.26116847826086953
F0.06658311433800554
F0.386141304347826
F0.20625
tp13
tp14
Rp15
sg1
(g2
g3
(S'1.00000000'
p16
S'0.12500000'
p17
S'1.000'
p18
S'20'
p19
S'10'
p20
tp21
tp22
Rp23
g1
(g12
g3
(F0.2629347826086956
F0.06256474046617354
F0.41358695652173916
F0.1983695652173913
tp24
tp25
Rp26
s.