(dp0
ccopy_reg
_reconstructor
p1
(cscripts.archipelago_tuples
Parameters
p2
c__builtin__
tuple
p3
(S'10.00000000'
p4
S'0.25000000'
p5
S'10.000'
p6
S'30'
p7
S'5'
p8
S'100'
p9
tp10
tp11
Rp12
g1
(cscripts.archipelago_tuples
Metrics
p13
g3
(F0.14223731884057972
F0.009549472437130186
F0.1625
F0.1293478260869565
tp14
tp15
Rp16
sg1
(g2
g3
(S'10.00000000'
p17
S'0.25000000'
p18
S'10.000'
p19
S'30'
p20
g8
S'20'
p21
tp22
tp23
Rp24
g1
(g13
g3
(F0.1974909420289855
F0.02683992413641333
F0.24673913043478263
F0.1635869565217391
tp25
tp26
Rp27
sg1
(g2
g3
(S'10.00000000'
p28
S'0.25000000'
p29
S'10.000'
p30
S'30'
p31
g8
S'30'
p32
tp33
tp34
Rp35
g1
(g13
g3
(F0.20837862318840578
F0.03211291690066366
F0.2470108695652174
F0.16222826086956524
tp36
tp37
Rp38
sg1
(g2
g3
(S'10.00000000'
p39
S'0.25000000'
p40
S'10.000'
p41
S'30'
p42
g8
S'90'
p43
tp44
tp45
Rp46
g1
(g13
g3
(F0.1590036231884058
F0.014771584523815023
F0.18396739130434783
F0.14076086956521738
tp47
tp48
Rp49
sg1
(g2
g3
(S'10.00000000'
p50
S'0.25000000'
p51
S'10.000'
p52
S'30'
p53
g8
S'70'
p54
tp55
tp56
Rp57
g1
(g13
g3
(F0.14566123188405794
F0.010232738607467274
F0.16331521739130436
F0.13070652173913044
tp58
tp59
Rp60
sg1
(g2
g3
(S'10.00000000'
p61
S'0.25000000'
p62
S'10.000'
p63
S'30'
p64
g8
S'80'
p65
tp66
tp67
Rp68
g1
(g13
g3
(F0.1515036231884058
F0.008057961781213232
F0.16657608695652174
F0.1394021739130435
tp69
tp70
Rp71
sg1
(g2
g3
(S'10.00000000'
p72
S'0.25000000'
p73
S'10.000'
p74
S'30'
p75
g8
S'10'
p76
tp77
tp78
Rp79
g1
(g13
g3
(F0.3516123188405797
F0.06514963844537083
F0.4850543478260869
F0.2847826086956522
tp80
tp81
Rp82
sg1
(g2
g3
(S'10.00000000'
p83
S'0.25000000'
p84
S'10.000'
p85
S'30'
p86
g8
S'50'
p87
tp88
tp89
Rp90
g1
(g13
g3
(F0.17644021739130433
F0.020190442006721633
F0.2081521739130435
F0.15353260869565216
tp91
tp92
Rp93
sg1
(g2
g3
(S'10.00000000'
p94
S'0.25000000'
p95
S'10.000'
p96
S'30'
p97
g8
S'60'
p98
tp99
tp100
Rp101
g1
(g13
g3
(F0.15738224637681159
F0.010063059477612551
F0.175
F0.14320652173913045
tp102
tp103
Rp104
sg1
(g2
g3
(S'10.00000000'
p105
S'0.25000000'
p106
S'10.000'
p107
S'30'
p108
g8
S'40'
p109
tp110
tp111
Rp112
g1
(g13
g3
(F0.17288949275362323
F0.014410780148703405
F0.19701086956521738
F0.15516304347826088
tp113
tp114
Rp115
s.