(dp0
ccopy_reg
_reconstructor
p1
(cscripts.archipelago_tuples
Parameters
p2
c__builtin__
tuple
p3
(S'10000.00000000'
p4
S'0.50000000'
p5
S'10000.000'
p6
S'1'
p7
g7
S'3312'
p8
tp9
tp10
Rp11
g1
(cscripts.archipelago_tuples
Metrics
p12
g3
(cnumpy.core.multiarray
scalar
p13
(cnumpy
dtype
p14
(S'f8'
p15
I0
I1
tp16
Rp17
(I3
S'<'
p18
NNNI-1
I-1
I0
tp19
bS'\xeaMoz\xd3\x9b\xc6?'
p20
tp21
Rp22
g13
(g17
S'\xd6,\xad\xe3\x10\x1a\xb4?'
p23
tp24
Rp25
F0.0
F0.1766304347826087
tp26
tp27
Rp28
sg1
(g2
g3
(S'10000.00000000'
p29
S'1.00000000'
p30
S'10000.000'
p31
g7
g7
S'3312'
p32
tp33
tp34
Rp35
g1
(g12
g3
(g13
(g17
S'\xbb\xa4\xf2a\xdc\xaf\xcb?'
p36
tp37
Rp38
g13
(g17
S't\xcd\xf3\x92z>\xc3?'
p39
tp40
Rp41
F0.0
F0.21630434782608696
tp42
tp43
Rp44
sg1
(g2
g3
(S'10000.00000000'
p45
S'0.00390625'
p46
S'10000.000'
p47
g7
g7
S'3312'
p48
tp49
tp50
Rp51
g1
(g12
g3
(g13
(g17
S'\xaa|\x18\xf7\xeb\x92\xba?'
p52
tp53
Rp54
g13
(g17
S'B\xb3\n\xaa\x8dS\x94?'
p55
tp56
Rp57
F0.0
F0.10380434782608697
tp58
tp59
Rp60
sg1
(g2
g3
(S'10000.00000000'
p61
S'2.00000000'
p62
S'10000.000'
p63
g7
g7
S'3312'
p64
tp65
tp66
Rp67
g1
(g12
g3
(g13
(g17
S'\x1e\xc6\xfd\xba\xa4\xf2\xdb?'
p68
tp69
Rp70
g13
(g17
S'\x97\x07\xaa\xd7\x80\xe2\xc2?'
p71
tp72
Rp73
F0.0
F0.4366847826086956
tp74
tp75
Rp76
sg1
(g2
g3
(S'10000.00000000'
p77
S'0.00781250'
p78
S'10000.000'
p79
g7
g7
S'3312'
p80
tp81
tp82
Rp83
g1
(g12
g3
(g13
(g17
S'\xb2\x90\x85,d!\xbb?'
p84
tp85
Rp86
g13
(g17
S'GK\x1b\x98r\xe7\x91?'
p87
tp88
Rp89
F0.0
F0.10597826086956522
tp90
tp91
Rp92
sg1
(g2
g3
(S'10000.00000000'
p93
S'0.06250000'
p94
S'10000.000'
p95
g7
g7
S'3312'
p96
tp97
tp98
Rp99
g1
(g12
g3
(g13
(g17
S'\xc2s\x04\x8a\xb6\x1a\xc0?'
p100
tp101
Rp102
g13
(g17
S'\xaf*\xd2\xcf\xb1\xb2\xa1?'
p103
tp104
Rp105
F0.0
F0.12581521739130436
tp106
tp107
Rp108
sg1
(g2
g3
(S'10000.00000000'
p109
S'0.12500000'
p110
S'10000.000'
p111
g7
g7
S'3312'
p112
tp113
tp114
Rp115
g1
(g12
g3
(g13
(g17
S'\x1d\x81\xa2\xad\x06\xcf\xc5?'
p116
tp117
Rp118
g13
(g17
S's\xf1\x88m\x97\xbd\xb6?'
p119
tp120
Rp121
F0.0
F0.1703804347826087
tp122
tp123
Rp124
sg1
(g2
g3
(S'10000.00000000'
p125
S'0.03125000'
p126
S'10000.000'
p127
g7
g7
S'3312'
p128
tp129
tp130
Rp131
g1
(g12
g3
(g13
(g17
S'8\xbd\xe9Moz\xbb?'
p132
tp133
Rp134
g13
(g17
S'\xbe\xfe\t\x13\x99\x0b\x90?'
p135
tp136
Rp137
F0.0
F0.10733695652173914
tp138
tp139
Rp140
sg1
(g2
g3
(S'10000.00000000'
p141
S'0.25000000'
p142
S'10000.000'
p143
g7
g7
S'3312'
p144
tp145
tp146
Rp147
g1
(g12
g3
(g13
(g17
S'H\xa0h\xab\xc1s\xd4?'
p148
tp149
Rp150
g13
(g17
S'\x9d\xe2:\x15\x07\xab\xbd?'
p151
tp152
Rp153
F0.0
F0.3195652173913044
tp154
tp155
Rp156
sg1
(g2
g3
(S'10000.00000000'
p157
S'8.00000000'
p158
S'10000.000'
p159
g7
g7
S'3312'
p160
tp161
tp162
Rp163
g1
(g12
g3
(g13
(g17
S'\xfa0\xee\xd7%\x95\xd9?'
p164
tp165
Rp166
g13
(g17
S'^\xb7\x91_\x96\x87\xbb?'
p167
tp168
Rp169
F0.0
F0.39972826086956526
tp170
tp171
Rp172
sg1
(g2
g3
(S'10000.00000000'
p173
S'4.00000000'
p174
S'10000.000'
p175
g7
g7
S'3312'
p176
tp177
tp178
Rp179
g1
(g12
g3
(g13
(g17
S'\x16\xb2\x90\x85,d\xd9?'
p180
tp181
Rp182
g13
(g17
S'\x84&[\x85\x97\xc7\xc3?'
p183
tp184
Rp185
F0.0
F0.3967391304347826
tp186
tp187
Rp188
sg1
(g2
g3
(S'10000.00000000'
p189
S'0.01562500'
p190
S'10000.000'
p191
g7
g7
S'3312'
p192
tp193
tp194
Rp195
g1
(g12
g3
(g13
(g17
S'\xa3\xad\x06\xcf\x11(\xba?'
p196
tp197
Rp198
g13
(g17
S'\xf9i\xbf&\xb4=\x87?'
p199
tp200
Rp201
F0.0
F0.10217391304347827
tp202
tp203
Rp204
s.