(dp0
ccopy_reg
_reconstructor
p1
(cscripts.archipelago_tuples
Parameters
p2
c__builtin__
tuple
p3
(S'1.00000000'
p4
S'0.12500000'
p5
S'1.000'
p6
S'10'
p7
S'10'
p8
tp9
tp10
Rp11
g1
(cscripts.archipelago_tuples
Metrics
p12
g3
(F0.16834239130434786
F0.026406854932269762
F0.23342391304347831
F0.14755434782608695
tp13
tp14
Rp15
sg1
(g2
g3
(S'1.00000000'
p16
S'0.06250000'
p17
S'1.000'
p18
S'10'
p19
S'10'
p20
tp21
tp22
Rp23
g1
(g12
g3
(F0.178125
F0.04634358518604759
F0.3029891304347826
F0.15027173913043476
tp24
tp25
Rp26
sg1
(g2
g3
(S'1.00000000'
p27
S'0.01562500'
p28
S'1.000'
p29
S'10'
p30
S'10'
p31
tp32
tp33
Rp34
g1
(g12
g3
(F0.19298913043478264
F0.02480902688553461
F0.24157608695652172
F0.16902173913043478
tp35
tp36
Rp37
sg1
(g2
g3
(S'1.00000000'
p38
S'0.03125000'
p39
S'1.000'
p40
S'10'
p41
S'10'
p42
tp43
tp44
Rp45
g1
(g12
g3
(F0.20521739130434785
F0.024898514258835668
F0.27445652173913043
F0.18858695652173912
tp46
tp47
Rp48
sg1
(g2
g3
(S'1.00000000'
p49
S'0.00781250'
p50
S'1.000'
p51
S'10'
p52
S'10'
p53
tp54
tp55
Rp56
g1
(g12
g3
(F0.22573369565217397
F0.024628637733190052
F0.2752717391304348
F0.19619565217391305
tp57
tp58
Rp59
s.