(dp0
ccopy_reg
_reconstructor
p1
(cscripts.archipelago_tuples
Parameters
p2
c__builtin__
tuple
p3
(S'1.00000000'
p4
S'4.00000000'
p5
S'1.000'
p6
S'20'
p7
S'20'
p8
S'100'
p9
tp10
tp11
Rp12
g1
(cscripts.archipelago_tuples
Metrics
p13
g3
(cnumpy.core.multiarray
scalar
p14
(cnumpy
dtype
p15
(S'f8'
p16
I0
I1
tp17
Rp18
(I3
S'<'
p19
NNNI-1
I-1
I0
tp20
bS'Bv\xb7\xd1\x9fx\xc8?'
p21
tp22
Rp23
g14
(g18
S'\xbc\xc5\xf8\xc0<\x1cy?'
p24
tp25
Rp26
F0.0072502478982025996
F0.20211298816610457
tp27
tp28
Rp29
sg1
(g2
g3
(S'1.00000000'
p30
S'4.00000000'
p31
S'0.063'
p32
S'20'
p33
S'20'
p34
S'100'
p35
tp36
tp37
Rp38
g1
(g13
g3
(g14
(g18
S'\xac\xca\xcb5\x17\x07\xc8?'
p39
tp40
Rp41
g14
(g18
S'\x04b\\:\xb7Y\x85?'
p42
tp43
Rp44
F0.006741907704536622
F0.20266555911704823
tp45
tp46
Rp47
sg1
(g2
g3
(S'1.00000000'
p48
S'4.00000000'
p49
S'0.031'
p50
S'20'
p51
S'20'
p52
S'100'
p53
tp54
tp55
Rp56
g1
(g13
g3
(g14
(g18
S'u\xb1\xef\xd9\xb2,\xca?'
p57
tp58
Rp59
g14
(g18
S'2&\xb5r\x9f,\x90?'
p60
tp61
Rp62
F0.01044301303591703
F0.22520811346417732
tp63
tp64
Rp65
sg1
(g2
g3
(S'1.00000000'
p66
S'4.00000000'
p67
S'0.500'
p68
S'20'
p69
S'20'
p70
S'100'
p71
tp72
tp73
Rp74
g1
(g13
g3
(g14
(g18
S'c&{\xb8W\x1d\xc8?'
p75
tp76
Rp77
g14
(g18
S'%w\r\xc3\xe2T{?'
p78
tp79
Rp80
F0.006564669247716708
F0.19676880036873895
tp81
tp82
Rp83
sg1
(g2
g3
(S'1.00000000'
p84
S'4.00000000'
p85
S'0.125'
p86
S'20'
p87
S'20'
p88
S'100'
p89
tp90
tp91
Rp92
g1
(g13
g3
(g14
(g18
S'\x0c\xb1 a\xfb\xc9\xc7?'
p93
tp94
Rp95
g14
(g18
S'\xcf\xe4N\x97\x06\x01\x83?'
p96
tp97
Rp98
F0.008303989878940633
F0.2006393053253661
tp99
tp100
Rp101
sg1
(g2
g3
(S'1.00000000'
p102
S'4.00000000'
p103
S'0.250'
p104
S'20'
p105
S'20'
p106
S'100'
p107
tp108
tp109
Rp110
g1
(g13
g3
(g14
(g18
S'B\xbe\xa5\xcf\xf5R\xc7?'
p111
tp112
Rp113
g14
(g18
S'\xc9\x8d\xc1\xfd\xe2\x99v?'
p114
tp115
Rp116
F0.005747520393120516
F0.1927149443383708
tp117
tp118
Rp119
s.