(dp0
ccopy_reg
_reconstructor
p1
(cscripts.archipelago_tuples
Parameters
p2
c__builtin__
tuple
p3
(S'1.00000000'
p4
S'2.00000000'
p5
S'1.000'
p6
S'30'
p7
S'5'
p8
S'75'
p9
tp10
tp11
Rp12
g1
(cscripts.archipelago_tuples
Metrics
p13
g3
(cnumpy.core.multiarray
scalar
p14
(cnumpy
dtype
p15
(S'f8'
p16
I0
I1
tp17
Rp18
(I3
S'<'
p19
NNNI-1
I-1
I0
tp20
bS'\xee\xf5\xf30IT\xc8?'
p21
tp22
Rp23
g14
(g18
S"\xdf\xdbl'0\xfbn?"
p24
tp25
Rp26
g14
(g18
S'\xc25\x1c\xcb\x8fE\x8b?'
p27
tp28
Rp29
g14
(g18
S't\x8f\x0f\xf8\xc0lV?'
p30
tp31
Rp32
F0.22229058335137547
F0.16909809263585746
tp33
tp34
Rp35
sg1
(g2
g3
(S'1.00000000'
p36
S'2.00000000'
p37
S'1.000'
p38
S'25'
p39
g8
S'75'
p40
tp41
tp42
Rp43
g1
(g13
g3
(g14
(g18
S'\x9c\xc1\xad\x9b\xf2\xca\xc7?'
p44
tp45
Rp46
g14
(g18
S'\xa4\xbc4NI\xd5\x80?'
p47
tp48
Rp49
g14
(g18
S'\xcd\xa6.\xa4=\\\x8a?'
p50
tp51
Rp52
g14
(g18
S'ye\xe0\xa4V\xb4f?'
p53
tp54
Rp55
F0.2238258138396302
F0.1690671066438644
tp56
tp57
Rp58
sg1
(g2
g3
(S'1.00000000'
p59
S'2.00000000'
p60
S'1.000'
p61
S'40'
p62
g8
S'75'
p63
tp64
tp65
Rp66
g1
(g13
g3
(g14
(g18
S'\xd6\n\x1f\x85fM\xc8?'
p67
tp68
Rp69
g14
(g18
S'#kk \n"t?'
p70
tp71
Rp72
g14
(g18
S'"\xd5\xe5`5\xf4\x85?'
p73
tp74
Rp75
g14
(g18
S'\xe8\x11h\xf7&\xc9M?'
p76
tp77
Rp78
F0.22355009886096772
F0.17137055587700356
tp79
tp80
Rp81
sg1
(g2
g3
(S'1.00000000'
p82
S'2.00000000'
p83
S'1.000'
p84
S'45'
p85
g8
S'75'
p86
tp87
tp88
Rp89
g1
(g13
g3
(g14
(g18
S'\xaf\xa7\x85\xdf\xd5\xa1\xc7?'
p90
tp91
Rp92
g14
(g18
S"\xe0='~8Gp?"
p93
tp94
Rp95
g14
(g18
S'\xbe\x8a\x7f\x01\x82\x81\x87?'
p96
tp97
Rp98
g14
(g18
S'\x01p\xa2\xdf\xce\xedU?'
p99
tp100
Rp101
F0.22186040046801483
F0.16857582873855517
tp102
tp103
Rp104
sg1
(g2
g3
(S'1.00000000'
p105
S'2.00000000'
p106
S'1.000'
p107
S'35'
p108
g8
S'75'
p109
tp110
tp111
Rp112
g1
(g13
g3
(g14
(g18
S'\xc6\x88\xa4\xf5C\r\xc8?'
p113
tp114
Rp115
g14
(g18
S'\x0f\x184\xcd\xb6_p?'
p116
tp117
Rp118
g14
(g18
S'\xef`\x88\x89we\x89?'
p119
tp120
Rp121
g14
(g18
S'Z\x97\xf5/\xe3\xb0c?'
p122
tp123
Rp124
F0.22133817428950983
F0.16793079015599738
tp125
tp126
Rp127
sg1
(g2
g3
(S'1.00000000'
p128
S'2.00000000'
p129
S'1.000'
p130
g8
g8
S'75'
p131
tp132
tp133
Rp134
g1
(g13
g3
(g14
(g18
S'\x87\xa0\x890\xaci\xc8?'
p135
tp136
Rp137
g14
(g18
S'\xe7\xac\x0e\xfc\x04\x10w?'
p138
tp139
Rp140
g14
(g18
S'n\x8f9\x9f\xe4\x85\x85?'
p141
tp142
Rp143
g14
(g18
S'\xbdD\xba\x0f-&i?'
p144
tp145
Rp146
F0.2058896204659177
F0.1744108795344595
tp147
tp148
Rp149
sg1
(g2
g3
(S'1.00000000'
p150
S'2.00000000'
p151
S'1.000'
p152
S'50'
p153
g8
S'75'
p154
tp155
tp156
Rp157
g1
(g13
g3
(g14
(g18
S'\x80\x80\xa1\x98K\xf2\xc7?'
p158
tp159
Rp160
g14
(g18
S'\xcc\x17)\x9b\x8d\xb5|?'
p161
tp162
Rp163
g14
(g18
S'+\x8e8srb\x8b?'
p164
tp165
Rp166
g14
(g18
S'ue\xfb\x97NEL?'
p167
tp168
Rp169
F0.22738908033274013
F0.1674091109000535
tp170
tp171
Rp172
sg1
(g2
g3
(S'1.00000000'
p173
S'2.00000000'
p174
S'1.000'
p175
S'20'
p176
g8
S'75'
p177
tp178
tp179
Rp180
g1
(g13
g3
(g14
(g18
S'\x00\xaf+wx\xc9\xc7?'
p181
tp182
Rp183
g14
(g18
S's.\xf4\xa2\xbf\x90p?'
p184
tp185
Rp186
g14
(g18
S'\xba\x86\x9f\xc1s\x0b\x87?'
p187
tp188
Rp189
g14
(g18
S'\xb4\xd3\xa7\x16\xd8\xe3f?'
p190
tp191
Rp192
F0.21648579246061592
F0.16986587761457272
tp193
tp194
Rp195
sg1
(g2
g3
(S'1.00000000'
p196
S'2.00000000'
p197
S'1.000'
p198
S'15'
p199
g8
S'75'
p200
tp201
tp202
Rp203
g1
(g13
g3
(g14
(g18
S'\xfb\x8e\xe1\xbdW\x1d\xc8?'
p204
tp205
Rp206
g14
(g18
S'n\xfa\xb6w-\xf3}?'
p207
tp208
Rp209
g14
(g18
S'Z\x92\x8bd\x1d\x7f\x87?'
p210
tp211
Rp212
g14
(g18
S'\xf7\xed\xaf\x1boki?'
p213
tp214
Rp215
F0.21624087487995994
F0.17459569221159638
tp216
tp217
Rp218
sg1
(g2
g3
(S'1.00000000'
p219
S'2.00000000'
p220
S'1.000'
p221
S'10'
p222
g8
S'75'
p223
tp224
tp225
Rp226
g1
(g13
g3
(g14
(g18
S'Y\x06\x00\xa3\xf8X\xc8?'
p227
tp228
Rp229
g14
(g18
S'w\xab\x93\x94dgv?'
p230
tp231
Rp232
g14
(g18
S'\x9a\xe3\xa0\xc7\xacR\x84?'
p233
tp234
Rp235
g14
(g18
S'S\xc7\xb4r\xf3vf?'
p236
tp237
Rp238
F0.21061968023512384
F0.17631531104051829
tp239
tp240
Rp241
s.