(dp0
ccopy_reg
_reconstructor
p1
(cscripts.archipelago_tuples
Parameters
p2
c__builtin__
tuple
p3
(S'1.00000000'
p4
S'0.50000000'
p5
S'1.000'
p6
S'20'
p7
S'20'
p8
S'50'
p9
tp10
tp11
Rp12
g1
(cscripts.archipelago_tuples
Metrics
p13
g3
(cnumpy.core.multiarray
scalar
p14
(cnumpy
dtype
p15
(S'f8'
p16
I0
I1
tp17
Rp18
(I3
S'<'
p19
NNNI-1
I-1
I0
tp20
bS'J\xda\x89\x08\x9d\x93\xc9?'
p21
tp22
Rp23
g14
(g18
S'\xf6\xa2\xf9y\xc9\xc7n?'
p24
tp25
Rp26
g14
(g18
S'Pfi=\xb25\x8d?'
p27
tp28
Rp29
g14
(g18
S'\xd3\x04\xc1\x0ec\xf6V?'
p30
tp31
Rp32
F0.22895486304681884
F0.1746569192493356
tp33
tp34
Rp35
sg1
(g2
g3
(S'1.00000000'
p36
S'0.06250000'
p37
S'1.000'
p38
S'20'
p39
S'20'
p40
S'50'
p41
tp42
tp43
Rp44
g1
(g13
g3
(g14
(g18
S'\xea`\\3\x02\xbe\xca?'
p45
tp46
Rp47
g14
(g18
S'|\x10\x96\x8f\x02\xeeu?'
p48
tp49
Rp50
g14
(g18
S'\xca\x84\r\xc9\xcd\xd3\x95?'
p51
tp52
Rp53
g14
(g18
S'lKC\xad&\xfel?'
p54
tp55
Rp56
F0.2492558929962983
F0.1793249787454577
tp57
tp58
Rp59
sg1
(g2
g3
(S'1.00000000'
p60
S'2.00000000'
p61
S'1.000'
p62
S'20'
p63
S'20'
p64
S'50'
p65
tp66
tp67
Rp68
g1
(g13
g3
(g14
(g18
S'\x05\xce(\xdc\xac\xb2\xca?'
p69
tp70
Rp71
g14
(g18
S'P\xfb\x84z\xa2Es?'
p72
tp73
Rp74
g14
(g18
S'\x8c\xdc\xc0\xcf\x0f[\x92?'
p75
tp76
Rp77
g14
(g18
S'\x07\x1c\x0f\xa2b\x86P?'
p78
tp79
Rp80
F0.239181834023713
F0.18199705378474182
tp81
tp82
Rp83
sg1
(g2
g3
(S'1.00000000'
p84
S'1.00000000'
p85
S'1.000'
p86
S'20'
p87
S'20'
p88
S'50'
p89
tp90
tp91
Rp92
g1
(g13
g3
(g14
(g18
S'\x1b\xd2\xd7a\x97\xf4\xc9?'
p93
tp94
Rp95
g14
(g18
S'\x8e9j\x8d\x83\xde~?'
p96
tp97
Rp98
g14
(g18
S'E\xfb\xccA@\xe7\x92?'
p99
tp100
Rp101
g14
(g18
S'l\xd6f\x0b\x94PX?'
p102
tp103
Rp104
F0.25232711777845335
F0.17653067594347913
tp105
tp106
Rp107
sg1
(g2
g3
(S'1.00000000'
p108
S'4.00000000'
p109
S'1.000'
p110
S'20'
p111
S'20'
p112
S'50'
p113
tp114
tp115
Rp116
g1
(g13
g3
(g14
(g18
S'`\xd5EE4\x93\xcb?'
p117
tp118
Rp119
g14
(g18
S'\x99\xfb\xff\x8a\xda\x0ez?'
p120
tp121
Rp122
g14
(g18
S':\xabq\x15\xda\xfe\x91?'
p123
tp124
Rp125
g14
(g18
S'$\x97U\xa3d\xe6\\?'
p126
tp127
Rp128
F0.24068712521660024
F0.18605095696360663
tp129
tp130
Rp131
sg1
(g2
g3
(S'1.00000000'
p132
S'0.25000000'
p133
S'1.000'
p134
S'20'
p135
S'20'
p136
S'50'
p137
tp138
tp139
Rp140
g1
(g13
g3
(g14
(g18
S'fX5\xa7\xf7\xd3\xc9?'
p141
tp142
Rp143
g14
(g18
S'l\x9ck$\xc41t?'
p144
tp145
Rp146
g14
(g18
S'0&\x11\xc36\x1a\x8c?'
p147
tp148
Rp149
g14
(g18
S'\xe5\xce\xaa\xb5\xb4\xbag?'
p150
tp151
Rp152
F0.23638606961833858
F0.17917167069377693
tp153
tp154
Rp155
sg1
(g2
g3
(S'1.00000000'
p156
S'0.12500000'
p157
S'1.000'
p158
S'20'
p159
S'20'
p160
S'50'
p161
tp162
tp163
Rp164
g1
(g13
g3
(g14
(g18
S'Zx4N\x85\x17\xcb?'
p165
tp166
Rp167
g14
(g18
S'\xba\xd2n\x00\xe3\xf0s?'
p168
tp169
Rp170
g14
(g18
S']\x8dz\xa0V#\x98?'
p171
tp172
Rp173
g14
(g18
S'\xdd\x99>\x18\xb6\x0b]?'
p174
tp175
Rp176
F0.2666388553401142
F0.18122915564963463
tp177
tp178
Rp179
s.