(dp0
ccopy_reg
_reconstructor
p1
(cscripts.archipelago_tuples
Parameters
p2
c__builtin__
tuple
p3
(S'1.00000000'
p4
S'0.12500000'
p5
S'1.000'
p6
S'10'
p7
S'10'
p8
S'250'
p9
tp10
tp11
Rp12
g1
(cscripts.archipelago_tuples
Metrics
p13
g3
(cnumpy.core.multiarray
scalar
p14
(cnumpy
dtype
p15
(S'f8'
p16
I0
I1
tp17
Rp18
(I3
S'<'
p19
NNNI-1
I-1
I0
tp20
bS'g\x1d1B\xa0\x04\xc7?'
p21
tp22
Rp23
g14
(g18
S'\xc9\xedI\xa9nk{?'
p24
tp25
Rp26
g14
(g18
S'2\xdf\x12\xf6\x07I|?'
p27
tp28
Rp29
g14
(g18
S'\x82\x10|\x1bc]X?'
p30
tp31
Rp32
F0.19145601347013688
F0.16802331436580747
tp33
tp34
Rp35
sg1
(g2
g3
(S'1.00000000'
p36
S'4.00000000'
p37
S'1.000'
p38
S'10'
p39
S'10'
p40
S'250'
p41
tp42
tp43
Rp44
g1
(g13
g3
(g14
(g18
S'\x0ce\xb5\xde\xf3h\xc6?'
p45
tp46
Rp47
g14
(g18
S'MvQ\x06\x1f)\x80?'
p48
tp49
Rp50
g14
(g18
S'\x87\x80H\xb3\xbe\xb0w?'
p51
tp52
Rp53
g14
(g18
S'\xfd\xa3\xe7\x07\n\x8cK?'
p54
tp55
Rp56
F0.18595905511395225
F0.16716361810773844
tp57
tp58
Rp59
sg1
(g2
g3
(S'1.00000000'
p60
S'16.00000000'
p61
S'1.000'
p62
S'10'
p63
S'10'
p64
S'250'
p65
tp66
tp67
Rp68
g1
(g13
g3
(g14
(g18
S'X/\xe3\x94\x9ag\xca?'
p69
tp70
Rp71
g14
(g18
S'\xf1\xc9+2\xf3wt?'
p72
tp73
Rp74
g14
(g18
S'&d\x0f\x01\x9e!\x93?'
p75
tp76
Rp77
g14
(g18
S'9X}\xf3\xc5\x92K?'
p78
tp79
Rp80
F0.23988856169927705
F0.18104507848904533
tp81
tp82
Rp83
sg1
(g2
g3
(S'1.00000000'
p84
S'1.00000000'
p85
S'1.000'
p86
S'10'
p87
S'10'
p88
S'250'
p89
tp90
tp91
Rp92
g1
(g13
g3
(g14
(g18
S'lS\x83\xab\xdc\\\xc6?'
p93
tp94
Rp95
g14
(g18
S'X\x83\xf7y\xbf\xcat?'
p96
tp97
Rp98
g14
(g18
S'\x84\xbaI\xddlbv?'
p99
tp100
Rp101
g14
(g18
S'\xd5$\x98\r\x1f8\\?'
p102
tp103
Rp104
F0.1835320391008141
F0.16541261723945172
tp105
tp106
Rp107
sg1
(g2
g3
(S'1.00000000'
p108
S'256.00000000'
p109
S'1.000'
p110
S'10'
p111
S'10'
p112
S'250'
p113
tp114
tp115
Rp116
g1
(g13
g3
(g14
(g18
S'\xbeS\x8f"\xd8\xd2\xce?'
p117
tp118
Rp119
g14
(g18
S'\x0f?\xbd\xbew\xfb~?'
p120
tp121
Rp122
g14
(g18
S'\x00\x00\x00\x00\x00\x00\x00\x00'
p123
tp124
Rp125
g14
(g18
S'\x00\x00\x00\x00\x00\x00\x00\x00'
p126
tp127
Rp128
F0.24080945670598725
F0.24080945670598725
tp129
tp130
Rp131
sg1
(g2
g3
(S'1.00000000'
p132
S'0.50000000'
p133
S'1.000'
p134
S'10'
p135
S'10'
p136
S'250'
p137
tp138
tp139
Rp140
g1
(g13
g3
(g14
(g18
S'e\xf2\xe8\xea\xac\xad\xc6?'
p141
tp142
Rp143
g14
(g18
S'Vc\x9f\xb5I\x03x?'
p144
tp145
Rp146
g14
(g18
S'\x8e+/\xa6\xd64~?'
p147
tp148
Rp149
g14
(g18
S')W\xb1\x83x!U?'
p150
tp151
Rp152
F0.18973620604722846
F0.16596539564378066
tp153
tp154
Rp155
sg1
(g2
g3
(S'1.00000000'
p156
S'128.00000000'
p157
S'1.000'
p158
S'10'
p159
S'10'
p160
S'250'
p161
tp162
tp163
Rp164
g1
(g13
g3
(g14
(g18
S' 1PE\xda\xd2\xce?'
p165
tp166
Rp167
g14
(g18
S'\xa6YV\r\xa4G{?'
p168
tp169
Rp170
g14
(g18
S'\x00\x00\x00\x00\x00\x00\x00\x00'
p171
tp172
Rp173
g14
(g18
S'\x00\x00\x00\x00\x00\x00\x00\x00'
p174
tp175
Rp176
F0.2408097113078691
F0.2408097113078691
tp177
tp178
Rp179
sg1
(g2
g3
(S'1.00000000'
p180
S'8.00000000'
p181
S'1.000'
p182
S'10'
p183
S'10'
p184
S'250'
p185
tp186
tp187
Rp188
g1
(g13
g3
(g14
(g18
S'TL\x08\x1e\xc3\xd7\xc7?'
p189
tp190
Rp191
g14
(g18
S'\xf8\xf4K\x1ai\xadv?'
p192
tp193
Rp194
g14
(g18
S'\x8a\x91\x12\x96!n|?'
p195
tp196
Rp197
g14
(g18
S'\xea%\xae\x85\t\xb8W?'
p198
tp199
Rp200
F0.19759815185436921
F0.17588539218873883
tp201
tp202
Rp203
sg1
(g2
g3
(S'1.00000000'
p204
S'0.25000000'
p205
S'1.000'
p206
S'10'
p207
S'10'
p208
S'250'
p209
tp210
tp211
Rp212
g1
(g13
g3
(g14
(g18
S'\xae~\xf8\xbc\x03\xf5\xc6?'
p213
tp214
Rp215
g14
(g18
S'\xa4\x8a<\x1cg\xe4s?'
p216
tp217
Rp218
g14
(g18
S'l\x91e\xd9\xddv\x81?'
p219
tp220
Rp221
g14
(g18
S'\xce\ny.[\xffP?'
p222
tp223
Rp224
F0.19643103796849576
F0.16676365741072527
tp225
tp226
Rp227
sg1
(g2
g3
(S'1.00000000'
p228
S'0.00390625'
p229
S'1.000'
p230
S'10'
p231
S'10'
p232
S'250'
p233
tp234
tp235
Rp236
g1
(g13
g3
(g14
(g18
S'r\x9f\xe2\x9d\x9b2\xc7?'
p237
tp238
Rp239
g14
(g18
S'hp\xe7\xfe\xbc+r?'
p240
tp241
Rp242
g14
(g18
S'e\x06\x19\xc2\xb5>\x82?'
p243
tp244
Rp245
g14
(g18
S'I\x82G\xcd~\xdcR?'
p246
tp247
Rp248
F0.1981202460170836
F0.16780797775194456
tp249
tp250
Rp251
sg1
(g2
g3
(S'1.00000000'
p252
S'32.00000000'
p253
S'1.000'
p254
S'10'
p255
S'10'
p256
S'250'
p257
tp258
tp259
Rp260
g1
(g13
g3
(g14
(g18
S'`\x1d}\xc9na\xce?'
p261
tp262
Rp263
g14
(g18
S'\x17\xfeQ\xaa\xca\xfc\x84?'
p264
tp265
Rp266
g14
(g18
S'\x8bJ\xfd\xb4S\x19r?'
p267
tp268
Rp269
g14
(g18
S'|\x10A\xb8j\xa6A?'
p270
tp271
Rp272
F0.24080960758117648
F0.22864793576337944
tp273
tp274
Rp275
sg1
(g2
g3
(S'1.00000000'
p276
S'64.00000000'
p277
S'1.000'
p278
S'10'
p279
S'10'
p280
S'250'
p281
tp282
tp283
Rp284
g1
(g13
g3
(g14
(g18
S'XlO_\xd8\xd2\xce?'
p285
tp286
Rp287
g14
(g18
S'\xa1\xb7Jx?\xf2{?'
p288
tp289
Rp290
g14
(g18
S'\x00\x00\x00\x00\x00\x00\x00\x00'
p291
tp292
Rp293
g14
(g18
S'\x00\x00\x00\x00\x00\x00\x00\x00'
p294
tp295
Rp296
F0.24080948499508525
F0.24080948499508525
tp297
tp298
Rp299
sg1
(g2
g3
(S'1.00000000'
p300
S'0.06250000'
p301
S'1.000'
p302
S'10'
p303
S'10'
p304
S'250'
p305
tp306
tp307
Rp308
g1
(g13
g3
(g14
(g18
S'.\x80\x110\xdb\xb8\xc7?'
p309
tp310
Rp311
g14
(g18
S'\xdb)\xef-\x1a)x?'
p312
tp313
Rp314
g14
(g18
S'%\x04\xc6p\xe72\x88?'
p315
tp316
Rp317
g14
(g18
S'c\x02U\x135\x82]?'
p318
tp319
Rp320
F0.204477409835101
F0.16968129125021972
tp321
tp322
Rp323
sg1
(g2
g3
(S'1.00000000'
p324
S'0.00781250'
p325
S'1.000'
p326
S'10'
p327
S'10'
p328
S'250'
p329
tp330
tp331
Rp332
g1
(g13
g3
(g14
(g18
S'n\x8cA\xf4\xcd\x91\xc7?'
p333
tp334
Rp335
g14
(g18
S'\x8a\xce\x00\x84.\xf9}?'
p336
tp337
Rp338
g14
(g18
S':B\xa7\xef\x81\x93\x81?'
p339
tp340
Rp341
g14
(g18
S'\xd5\xe0\x93\xa8tmp?'
p342
tp343
Rp344
F0.19882525748736984
F0.17124760202746078
tp345
tp346
Rp347
sg1
(g2
g3
(S'1.00000000'
p348
S'2.00000000'
p349
S'1.000'
p350
S'10'
p351
S'10'
p352
S'250'
p353
tp354
tp355
Rp356
g1
(g13
g3
(g14
(g18
S'\x80\x08\xbe\x1d\x01\x15\xc6?'
p357
tp358
Rp359
g14
(g18
S'~)\xbf\xc4\xdfnu?'
p360
tp361
Rp362
g14
(g18
S'><(\x15%\xect?'
p363
tp364
Rp365
g14
(g18
S'\x1f\x94\xca\xdeq,S?'
p366
tp367
Rp368
F0.1802153875342392
F0.163876726672244
tp369
tp370
Rp371
sg1
(g2
g3
(S'1.00000000'
p372
S'0.03125000'
p373
S'1.000'
p374
S'10'
p375
S'10'
p376
S'250'
p377
tp378
tp379
Rp380
g1
(g13
g3
(g14
(g18
S'\xe8]\x1dFb\x9c\xc7?'
p381
tp382
Rp383
g14
(g18
S'\xeeB\x95\x1d\x8b-r?'
p384
tp385
Rp386
g14
(g18
S'0\r\x84T\xf8\x04\x82?'
p387
tp388
Rp389
g14
(g18
S'T\xc3l\xaf\xe9\x91`?'
p390
tp391
Rp392
F0.19821196870245078
F0.16937438282617895
tp393
tp394
Rp395
sg1
(g2
g3
(S'1.00000000'
p396
S'0.01562500'
p397
S'1.000'
p398
S'10'
p399
S'10'
p400
S'250'
p401
tp402
tp403
Rp404
g1
(g13
g3
(g14
(g18
S'&="\xe4\x9c"\xc7?'
p405
tp406
Rp407
g14
(g18
S'O\x99\xf9\x00\x88Hd?'
p408
tp409
Rp410
g14
(g18
S'^\x1c\x08\x07b\x03\x85?'
p411
tp412
Rp413
g14
(g18
S'\x1b\xbd\xe0(\xda\xf9X?'
p414
tp415
Rp416
F0.19898059292440626
F0.16399978424847939
tp417
tp418
Rp419
s.