(dp0
ccopy_reg
_reconstructor
p1
(cscripts.archipelago_tuples
Parameters
p2
c__builtin__
tuple
p3
(S'10.00000000'
p4
S'4.00000000'
p5
S'10.000'
p6
S'4'
p7
g7
S'500'
p8
tp9
tp10
Rp11
g1
(cscripts.archipelago_tuples
Metrics
p12
g3
(cnumpy.core.multiarray
scalar
p13
(cnumpy
dtype
p14
(S'f8'
p15
I0
I1
tp16
Rp17
(I3
S'<'
p18
NNNI-1
I-1
I0
tp19
bS'r\xbf.\xa9|\x18\xd5?'
p20
tp21
Rp22
g13
(g17
S"\xc2-'F\xb6\x16\xaa?"
p23
tp24
Rp25
F0.0
F0.32961956521739133
tp26
tp27
Rp28
sg1
(g2
g3
(S'10.00000000'
p29
S'16.00000000'
p30
S'10.000'
p31
g7
g7
S'500'
p32
tp33
tp34
Rp35
g1
(g12
g3
(g13
(g17
S'\xd6\xe09\x02E[\xd9?'
p36
tp37
Rp38
g13
(g17
S'z6Wje\xe7\x9b?'
p39
tp40
Rp41
F0.0
F0.39619565217391306
tp42
tp43
Rp44
sg1
(g2
g3
(S'10.00000000'
p45
S'8.00000000'
p46
S'10.000'
p47
g7
g7
S'500'
p48
tp49
tp50
Rp51
g1
(g12
g3
(g13
(g17
S'5x\x8e@\xd1V\xd9?'
p52
tp53
Rp54
g13
(g17
S'd\x91\x9c<\xdbn\x9c?'
p55
tp56
Rp57
F0.0
F0.39592391304347824
tp58
tp59
Rp60
sg1
(g2
g3
(S'10.00000000'
p61
S'0.06250000'
p62
S'10.000'
p63
g7
g7
S'500'
p64
tp65
tp66
Rp67
g1
(g12
g3
(g13
(g17
S'\xbf.\xa9|\x18\xf7\xc3?'
p68
tp69
Rp70
g13
(g17
S'\xe8\x06~9\xe4b\x91?'
p71
tp72
Rp73
F0.0
F0.1559782608695652
tp74
tp75
Rp76
sg1
(g2
g3
(S'10.00000000'
p77
S'32.00000000'
p78
S'10.000'
p79
g7
g7
S'500'
p80
tp81
tp82
Rp83
g1
(g12
g3
(g13
(g17
S'vI\xe5\xc3\xb8_\xd9?'
p84
tp85
Rp86
g13
(g17
S'20\xae\x9e\x8f\xf7\x93?'
p87
tp88
Rp89
F0.0
F0.3964673913043478
tp90
tp91
Rp92
sg1
(g2
g3
(S'10.00000000'
p93
S'0.50000000'
p94
S'10.000'
p95
g7
g7
S'500'
p96
tp97
tp98
Rp99
g1
(g12
g3
(g13
(g17
S'\xad\x06\xcf\x11(\xda\xc6?'
p100
tp101
Rp102
g13
(g17
S'\xab\x1d\x01\xe4\x0b\xdf\x8d?'
p103
tp104
Rp105
F0.0
F0.17853260869565216
tp106
tp107
Rp108
sg1
(g2
g3
(S'10.00000000'
p109
S'0.03125000'
p110
S'10.000'
p111
g7
g7
S'500'
p112
tp113
tp114
Rp115
g1
(g12
g3
(g13
(g17
S'B\x16\xb2\x90\x85,\xc4?'
p116
tp117
Rp118
g13
(g17
S'\xdd+\xb3o\xbd\xe2\x8e?'
p119
tp120
Rp121
F0.0
F0.1576086956521739
tp122
tp123
Rp124
sg1
(g2
g3
(S'10.00000000'
p125
S'1.00000000'
p126
S'10.000'
p127
g7
g7
S'500'
p128
tp129
tp130
Rp131
g1
(g12
g3
(g13
(g17
S'\x8a\xb6\x1a<G\xa0\xc8?'
p132
tp133
Rp134
g13
(g17
S'\r"/8s\xe5\x8c?'
p135
tp136
Rp137
F0.0
F0.1923913043478261
tp138
tp139
Rp140
sg1
(g2
g3
(S'10.00000000'
p141
S'0.12500000'
p142
S'10.000'
p143
g7
g7
S'500'
p144
tp145
tp146
Rp147
g1
(g12
g3
(g13
(g17
S'\xbe.\xa9|\x18\xf7\xc3?'
p148
tp149
Rp150
g13
(g17
S'\xd8\x1b\x07\n%\x05\x97?'
p151
tp152
Rp153
F0.0
F0.15597826086956518
tp154
tp155
Rp156
sg1
(g2
g3
(S'10.00000000'
p157
S'2.00000000'
p158
S'10.000'
p159
g7
g7
S'500'
p160
tp161
tp162
Rp163
g1
(g12
g3
(g13
(g17
S'\xd8%\x95\x0f\xe3~\xcd?'
p164
tp165
Rp166
g13
(g17
S'Me\x05\x8f\xa8p\x97?'
p167
tp168
Rp169
F0.0
F0.23043478260869565
tp170
tp171
Rp172
sg1
(g2
g3
(S'10.00000000'
p173
S'0.25000000'
p174
S'10.000'
p175
g7
g7
S'500'
p176
tp177
tp178
Rp179
g1
(g12
g3
(g13
(g17
S'\x0f\xe3~]R\xf9\xc4?'
p180
tp181
Rp182
g13
(g17
S'\xd0\r\xd4\xc0\xf7j\x92?'
p183
tp184
Rp185
F0.0
F0.1638586956521739
tp186
tp187
Rp188
s.