(dp0
ccopy_reg
_reconstructor
p1
(cscripts.archipelago_tuples
Parameters
p2
c__builtin__
tuple
p3
(S'1.00000000'
p4
S'2.00000000'
p5
S'1.000'
p6
S'100'
p7
S'5'
p8
S'75'
p9
tp10
tp11
Rp12
g1
(cscripts.archipelago_tuples
Metrics
p13
g3
(cnumpy.core.multiarray
scalar
p14
(cnumpy
dtype
p15
(S'f8'
p16
I0
I1
tp17
Rp18
(I3
S'<'
p19
NNNI-1
I-1
I0
tp20
bS'\xa0\xb22\xffM\x11\xc7?'
p21
tp22
Rp23
g14
(g18
S'\xfaB\xae(\xd4Hy?'
p24
tp25
Rp26
g14
(g18
S"'\xc2\t}n9P?"
p27
tp28
Rp29
g14
(g18
S'e\x8b\x1d\x8c\xac\xb81?'
p30
tp31
Rp32
F0.18208930453327135
F0.17806609502572046
tp33
tp34
Rp35
sg1
(g2
g3
(S'1.00000000'
p36
S'2.00000000'
p37
S'1.000'
p38
S'150'
p39
g8
S'75'
p40
tp41
tp42
Rp43
g1
(g13
g3
(g14
(g18
S'\x14\xa0_\x81\x8d\x03\xc8?'
p44
tp45
Rp46
g14
(g18
S'\xddS\x9d\\7\xd3k?'
p47
tp48
Rp49
g14
(g18
S'\x1cKd!$:\x82?'
p50
tp51
Rp52
g14
(g18
S'\xd5\x02\x90\x8e\xe3\xc2Y?'
p53
tp54
Rp55
F0.23098106969000431
F0.17084863144887708
tp56
tp57
Rp58
sg1
(g2
g3
(S'1.00000000'
p59
S'2.00000000'
p60
S'1.000'
p61
g8
g8
S'75'
p62
tp63
tp64
Rp65
g1
(g13
g3
(g14
(g18
S'\x82\xa1l\xff\xde\xc6\xc8?'
p66
tp67
Rp68
g14
(g18
S'\xa2\xc3\xca\xde\xf4\xc2q?'
p69
tp70
Rp71
g14
(g18
S'^1\xa8B\x16c\x7f?'
p72
tp73
Rp74
g14
(g18
S'\x9dL\xe7\xb17\x97i?'
p75
tp76
Rp77
F0.2014985300984687
F0.18043064871050746
tp78
tp79
Rp80
s.