(dp0
ccopy_reg
_reconstructor
p1
(cscripts.archipelago_tuples
Parameters
p2
c__builtin__
tuple
p3
(S'1.00000000'
p4
S'0.50000000'
p5
S'1.000'
p6
S'20'
p7
S'14'
p8
S'100'
p9
tp10
tp11
Rp12
g1
(cscripts.archipelago_tuples
Metrics
p13
g3
(cnumpy.core.multiarray
scalar
p14
(cnumpy
dtype
p15
(S'f8'
p16
I0
I1
tp17
Rp18
(I3
S'<'
p19
NNNI-1
I-1
I0
tp20
bS'\xbe\xa5}\xe0\x0f\xeb\xc6?'
p21
tp22
Rp23
g14
(g18
S'\x86~\xa9h\xb7\xe6v?'
p24
tp25
Rp26
g14
(g18
S'\xb1\x9a\xbba\xdf\xe4\xb9?'
p27
tp28
Rp29
g14
(g18
S'\x00\x00\x00\x00\x00\x00\x00\x00'
p30
tp31
Rp32
F0.20165213047082867
F0.16427627246248677
tp33
tp34
Rp35
sg1
(g2
g3
(S'1.00000000'
p36
S'0.50000000'
p37
S'1.000'
p38
S'20'
p39
S'9'
p40
S'100'
p41
tp42
tp43
Rp44
g1
(g13
g3
(g14
(g18
S'\xde\x93\x7f\x03H\xeb\xc7?'
p45
tp46
Rp47
g14
(g18
S'\x84b;\r\x910p?'
p48
tp49
Rp50
g14
(g18
S'\xaaT\xdee\x9f$\xc6?'
p51
tp52
Rp53
g14
(g18
S'\x00\x00\x00\x00\x00\x00\x00\x00'
p54
tp55
Rp56
F0.23313207840380085
F0.16866825865137194
tp57
tp58
Rp59
sg1
(g2
g3
(S'1.00000000'
p60
S'0.50000000'
p61
S'1.000'
p62
S'20'
p63
S'6'
p64
S'100'
p65
tp66
tp67
Rp68
g1
(g13
g3
(g14
(g18
S"[\xe0\x1f X'\xc7?"
p69
tp70
Rp71
g14
(g18
S'|h\xd9A\xd0+d?'
p72
tp73
Rp74
g14
(g18
S'5~\x10\xb9\xdb&\xbb?'
p75
tp76
Rp77
g14
(g18
S'\x00\x00\x00\x00\x00\x00\x00\x00'
p78
tp79
Rp80
F0.20542998863155454
F0.16621114303797754
tp81
tp82
Rp83
sg1
(g2
g3
(S'1.00000000'
p84
S'0.50000000'
p85
S'1.000'
p86
S'20'
p87
S'13'
p88
S'100'
p89
tp90
tp91
Rp92
g1
(g13
g3
(g14
(g18
S'\x19\\\x9f;1\x04\xc8?'
p93
tp94
Rp95
g14
(g18
S'\xe9)\xc3\xfc`\x04l?'
p96
tp97
Rp98
g14
(g18
S'\x809\x15O\x13?\xbd?'
p99
tp100
Rp101
g14
(g18
S'\x00\x00\x00\x00\x00\x00\x00\x00'
p102
tp103
Rp104
F0.2116641797406304
F0.17035733468416922
tp105
tp106
Rp107
sg1
(g2
g3
(S'1.00000000'
p108
S'0.50000000'
p109
S'1.000'
p110
S'20'
p111
S'8'
p112
S'100'
p113
tp114
tp115
Rp116
g1
(g13
g3
(g14
(g18
S'/\xbe\x0cQ\x03 \xc8?'
p117
tp118
Rp119
g14
(g18
S'\xbbv\xc6Mn\xbb{?'
p120
tp121
Rp122
g14
(g18
S'MEc\xcc\x94\xa7\xc3?'
p123
tp124
Rp125
g14
(g18
S'\x00\x00\x00\x00\x00\x00\x00\x00'
p126
tp127
Rp128
F0.22671333864916918
F0.16962002649368324
tp129
tp130
Rp131
sg1
(g2
g3
(S'1.00000000'
p132
S'0.50000000'
p133
S'1.000'
p134
S'20'
p135
S'17'
p136
S'100'
p137
tp138
tp139
Rp140
g1
(g13
g3
(g14
(g18
S'\xaep\xd3Bd\x0f\xc7?'
p141
tp142
Rp143
g14
(g18
S'\xd2:Sx\x0fjr?'
p144
tp145
Rp146
g14
(g18
S'\xff\xb1\xcf\x17\xc3l\xc2?'
p147
tp148
Rp149
g14
(g18
S'\x00\x00\x00\x00\x00\x00\x00\x00'
p150
tp151
Rp152
F0.2166704354031649
F0.16326268351137863
tp153
tp154
Rp155
sg1
(g2
g3
(S'1.00000000'
p156
S'0.50000000'
p157
S'1.000'
p158
S'20'
p159
S'1'
p160
S'100'
p161
tp162
tp163
Rp164
g1
(g13
g3
(g14
(g18
S"\x86\xe9'\xc4\xd0\xb5\xc8?"
p165
tp166
Rp167
g14
(g18
S'\xb8\xa1\xa5\xc8\x04\x99q?'
p168
tp169
Rp170
g14
(g18
S'\xe3\xec\x9e.\xca{\xc2?'
p171
tp172
Rp173
g14
(g18
S'\x00\x00\x00\x00\x00\x00\x00\x00'
p174
tp175
Rp176
F0.230644684025863
F0.17348999395744863
tp177
tp178
Rp179
sg1
(g2
g3
(S'1.00000000'
p180
S'0.50000000'
p181
S'1.000'
p182
S'20'
p183
S'20'
p184
S'100'
p185
tp186
tp187
Rp188
g1
(g13
g3
(g14
(g18
S'\xad\x8f\xb0\t\x98\xe0\xc6?'
p189
tp190
Rp191
g14
(g18
S' \xc4\x05\xc2[4u?'
p192
tp193
Rp194
g14
(g18
S'[\xa7\x15\xb2\xc6\xf9\xb7?'
p195
tp196
Rp197
g14
(g18
S'\x00\x00\x00\x00\x00\x00\x00\x00'
p198
tp199
Rp200
F0.196891791937079
F0.16489030619365283
tp201
tp202
Rp203
sg1
(g2
g3
(S'1.00000000'
p204
S'0.50000000'
p205
S'1.000'
p206
S'20'
p207
S'12'
p208
S'100'
p209
tp210
tp211
Rp212
g1
(g13
g3
(g14
(g18
S'\xed\xce\xa1~\x08\xa3\xc7?'
p213
tp214
Rp215
g14
(g18
S'\xb9\x90s\xd9\xc6%x?'
p216
tp217
Rp218
g14
(g18
S'}\x1b)\x81\x15\xa8\xbf?'
p219
tp220
Rp221
g14
(g18
S'\x00\x00\x00\x00\x00\x00\x00\x00'
p222
tp223
Rp224
F0.2144901003244571
F0.16765494316154433
tp225
tp226
Rp227
sg1
(g2
g3
(S'1.00000000'
p228
S'0.50000000'
p229
S'1.000'
p230
S'20'
p231
S'15'
p232
S'100'
p233
tp234
tp235
Rp236
g1
(g13
g3
(g14
(g18
S'\xb8\xc6?jWU\xc7?'
p237
tp238
Rp239
g14
(g18
S'?\xe1\xe8G\xea\xf5v?'
p240
tp241
Rp242
g14
(g18
S'5\x98\xb5t\xc3\xba\xba?'
p243
tp244
Rp245
g14
(g18
S'\x00\x00\x00\x00\x00\x00\x00\x00'
p246
tp247
Rp248
F0.20751853501699985
F0.16713263211574542
tp249
tp250
Rp251
sg1
(g2
g3
(S'1.00000000'
p252
S'0.50000000'
p253
S'1.000'
p254
S'20'
p255
S'4'
p256
S'100'
p257
tp258
tp259
Rp260
g1
(g13
g3
(g14
(g18
S'\xa3\xfdWP):\xc7?'
p261
tp262
Rp263
g14
(g18
S'A\xe4\x87\x92\xc5\xd5v?'
p264
tp265
Rp266
g14
(g18
S'+<`\x05\xe33\xc0?'
p267
tp268
Rp269
g14
(g18
S'\x00\x00\x00\x00\x00\x00\x00\x00'
p270
tp271
Rp272
F0.21187920517441547
F0.1633242500182936
tp273
tp274
Rp275
sg1
(g2
g3
(S'1.00000000'
p276
S'0.50000000'
p277
S'1.000'
p278
S'20'
p279
S'19'
p280
S'100'
p281
tp282
tp283
Rp284
g1
(g13
g3
(g14
(g18
S'\x86\xb5\x8f\xf8\xa5\xc9\xc6?'
p285
tp286
Rp287
g14
(g18
S'o\xfe3\xdd\x88\x9dr?'
p288
tp289
Rp290
g14
(g18
S'\x0b\xf8\xfb"\x92\xca\xb6?'
p291
tp292
Rp293
g14
(g18
S'\x00\x00\x00\x00\x00\x00\x00\x00'
p294
tp295
Rp296
F0.19603182221772952
F0.16541257009095514
tp297
tp298
Rp299
sg1
(g2
g3
(S'1.00000000'
p300
S'0.50000000'
p301
S'1.000'
p302
S'20'
p303
S'16'
p304
S'100'
p305
tp306
tp307
Rp308
g1
(g13
g3
(g14
(g18
S'\xd4\xd1\x9e\x1bo}\xc7?'
p309
tp310
Rp311
g14
(g18
S',)p\xf7\xdf\xf1u?'
p312
tp313
Rp314
g14
(g18
S'?u\rh.8\xbe?'
p315
tp316
Rp317
g14
(g18
S'\x00\x00\x00\x00\x00\x00\x00\x00'
p318
tp319
Rp320
F0.21150955153104373
F0.1663954087925534
tp321
tp322
Rp323
sg1
(g2
g3
(S'1.00000000'
p324
S'0.50000000'
p325
S'1.000'
p326
S'20'
p327
S'3'
p328
S'100'
p329
tp330
tp331
Rp332
g1
(g13
g3
(g14
(g18
S'\xde\xf0\xc0~?\xdd\xc7?'
p333
tp334
Rp335
g14
(g18
S'\xba\x1c #_0t?'
p336
tp337
Rp338
g14
(g18
S'\xa5\x12\x9aJ\xc0l\xc0?'
p339
tp340
Rp341
g14
(g18
S'\x00\x00\x00\x00\x00\x00\x00\x00'
p342
tp343
Rp344
F0.22192248560839287
F0.16925165528942007
tp345
tp346
Rp347
sg1
(g2
g3
(S'1.00000000'
p348
S'0.50000000'
p349
S'1.000'
p350
S'20'
p351
S'18'
p352
S'100'
p353
tp354
tp355
Rp356
g1
(g13
g3
(g14
(g18
S'5A\x14\xd0X7\xc7?'
p357
tp358
Rp359
g14
(g18
S'e\x13\x7f\x12!\x97z?'
p360
tp361
Rp362
g14
(g18
S'\xfe\xfb\xd7bR2\xc2?'
p363
tp364
Rp365
g14
(g18
S'\x00\x00\x00\x00\x00\x00\x00\x00'
p366
tp367
Rp368
F0.21964979605446291
F0.16568894514857055
tp369
tp370
Rp371
sg1
(g2
g3
(S'1.00000000'
p372
S'0.50000000'
p373
S'1.000'
p374
S'20'
p375
S'7'
p376
S'100'
p377
tp378
tp379
Rp380
g1
(g13
g3
(g14
(g18
S'v\xea\x8d\x15\xed\x9b\xc7?'
p381
tp382
Rp383
g14
(g18
S'\x9dHD\xd6\x9a(t?'
p384
tp385
Rp386
g14
(g18
S'2\x10\x94\xba\xd1\xd6\xbd?'
p387
tp388
Rp389
g14
(g18
S'\x00\x00\x00\x00\x00\x00\x00\x00'
p390
tp391
Rp392
F0.20948355234124344
F0.16657969340652792
tp393
tp394
Rp395
sg1
(g2
g3
(S'1.00000000'
p396
S'0.50000000'
p397
S'1.000'
p398
S'20'
p399
S'11'
p400
S'100'
p401
tp402
tp403
Rp404
g1
(g13
g3
(g14
(g18
S'F%\xf5\xf8s\xee\xc7?'
p405
tp406
Rp407
g14
(g18
S'\xf9\xc1\x9b\xe0\xe6\xa6o?'
p408
tp409
Rp410
g14
(g18
S'TI_i`a\xba?'
p411
tp412
Rp413
g14
(g18
S'\x00\x00\x00\x00\x00\x00\x00\x00'
p414
tp415
Rp416
F0.210128383470416
F0.17220000165962707
tp417
tp418
Rp419
sg1
(g2
g3
(S'1.00000000'
p420
S'0.50000000'
p421
S'1.000'
p422
S'20'
p423
S'10'
p424
S'100'
p425
tp426
tp427
Rp428
g1
(g13
g3
(g14
(g18
S'\x021\x13\x9f`\xb3\xc7?'
p429
tp430
Rp431
g14
(g18
S'\xcd914\xa6\xebb?'
p432
tp433
Rp434
g14
(g18
S'\x9f\xd3\xc99B\xcd\xbb?'
p435
tp436
Rp437
g14
(g18
S'\x00\x00\x00\x00\x00\x00\x00\x00'
p438
tp439
Rp440
F0.20607463116674046
F0.1686988203068952
tp441
tp442
Rp443
sg1
(g2
g3
(S'1.00000000'
p444
S'0.50000000'
p445
S'1.000'
p446
S'20'
p447
S'5'
p448
S'100'
p449
tp450
tp451
Rp452
g1
(g13
g3
(g14
(g18
S'\x86:\x85\x80\x9e\xe8\xc7?'
p453
tp454
Rp455
g14
(g18
S'\xdc\xc7\xc7\xf0\x91\x92r?'
p456
tp457
Rp458
g14
(g18
S'\xe5\xda\\\x02b\xc5\xc0?'
p459
tp460
Rp461
g14
(g18
S'\x00\x00\x00\x00\x00\x00\x00\x00'
p462
tp463
Rp464
F0.21823676503980463
F0.16863742353456818
tp465
tp466
Rp467
sg1
(g2
g3
(S'1.00000000'
p468
S'0.50000000'
p469
S'1.000'
p470
S'20'
p471
S'2'
p472
S'100'
p473
tp474
tp475
Rp476
g1
(g13
g3
(g14
(g18
S'J\xc4\xd1n\x0b\x86\xc7?'
p477
tp478
Rp479
g14
(g18
S'6\xef#\xd1\xf0Ru?'
p480
tp481
Rp482
g14
(g18
S'd\x91\x04\xe8\xc3\xb3\xbd?'
p483
tp484
Rp485
g14
(g18
S'\x00\x00\x00\x00\x00\x00\x00\x00'
p486
tp487
Rp488
F0.21657876929599373
F0.1687603396653136
tp489
tp490
Rp491
s.