(dp0
ccopy_reg
_reconstructor
p1
(cscripts.archipelago_tuples
Parameters
p2
c__builtin__
tuple
p3
(S'1.00000000'
p4
S'0.06250000'
p5
S'1.000'
p6
S'10'
p7
S'1'
p8
S'30'
p9
tp10
tp11
Rp12
g1
(cscripts.archipelago_tuples
Metrics
p13
g3
(cnumpy.core.multiarray
scalar
p14
(cnumpy
dtype
p15
(S'f8'
p16
I0
I1
tp17
Rp18
(I3
S'<'
p19
NNNI-1
I-1
I0
tp20
bS'\x1f\x85\xebQ\xb8\x1e\xd0?'
p21
tp22
Rp23
g14
(g18
S'\xfcUkHz\x0e\xa4?'
p24
tp25
Rp26
F0.03148833192402405
F0.30434782608695654
tp27
tp28
Rp29
sg1
(g2
g3
(S'1.00000000'
p30
S'0.06250000'
p31
S'1.000'
p32
S'50'
p33
g8
S'30'
p34
tp35
tp36
Rp37
g1
(g13
g3
(g14
(g18
S'Z\x1f\xe0\xd1\xb1i\xcb?'
p38
tp39
Rp40
g14
(g18
S'J7c\xe9\x1d\xb5\xa5?'
p41
tp42
Rp43
F0.010202503617954852
F0.2377717391304348
tp44
tp45
Rp46
sg1
(g2
g3
(S'1.00000000'
p47
S'0.06250000'
p48
S'1.000'
p49
S'20'
p50
g8
S'30'
p51
tp52
tp53
Rp54
g1
(g13
g3
(g14
(g18
S'\x13\xaa\xfe<\xc9\xc4\xc8?'
p55
tp56
Rp57
g14
(g18
S'\xb7\xa4\x8f\xc4\xb6\x91\x9e?'
p58
tp59
Rp60
F0.018991535445591897
F0.22934782608695653
tp61
tp62
Rp63
sg1
(g2
g3
(S'1.00000000'
p64
S'0.06250000'
p65
S'1.000'
p66
g8
g8
S'30'
p67
tp68
tp69
Rp70
g1
(g13
g3
(g14
(g18
S'\xf90\xee\xd7%\x95\xd9?'
p71
tp72
Rp73
g14
(g18
S'\x1d(\xd7\x18%\xe6\xb8?'
p74
tp75
Rp76
F0.0
F0.3997282608695652
tp77
tp78
Rp79
sg1
(g2
g3
(S'1.00000000'
p80
S'0.06250000'
p81
S'1.000'
p82
S'30'
p83
g8
S'30'
p84
tp85
tp86
Rp87
g1
(g13
g3
(g14
(g18
S':q\xe9w\xb8\x89\xce?'
p88
tp89
Rp90
g14
(g18
S'\xd1\xbb\xcc\xcdq\xe8\x9f?'
p91
tp92
Rp93
F0.016818313358632864
F0.2771739130434782
tp94
tp95
Rp96
sg1
(g2
g3
(S'1.00000000'
p97
S'0.06250000'
p98
S'1.000'
p99
S'40'
p100
g8
S'30'
p101
tp102
tp103
Rp104
g1
(g13
g3
(g14
(g18
S"\x01\x82$\xd2\xd8'\xc8?"
p105
tp106
Rp107
g14
(g18
S'\x92\xc5-\xde\x06\xa8\x99?'
p108
tp109
Rp110
F0.009305317528448504
F0.20625
tp111
tp112
Rp113
s.