(dp0
ccopy_reg
_reconstructor
p1
(cscripts.archipelago_tuples
Parameters
p2
c__builtin__
tuple
p3
(S'1.00000000'
p4
S'0.50000000'
p5
S'1.000'
p6
S'10'
p7
S'10'
p8
tp9
tp10
Rp11
g1
(cscripts.archipelago_tuples
Metrics
p12
g3
(F0.14315217391304347
F0.016836560152790718
F0.18559782608695655
F0.12717391304347828
tp13
tp14
Rp15
sg1
(g2
g3
(S'1.00000000'
p16
S'0.12500000'
p17
S'1.000'
p18
S'10'
p19
S'10'
p20
tp21
tp22
Rp23
g1
(g12
g3
(F0.18442934782608697
F0.028196164843623483
F0.24809782608695655
F0.1641304347826087
tp24
tp25
Rp26
sg1
(g2
g3
(S'1.00000000'
p27
S'0.03125000'
p28
S'1.000'
p29
S'10'
p30
S'10'
p31
tp32
tp33
Rp34
g1
(g12
g3
(F0.19423913043478264
F0.04970746985586367
F0.327445652173913
F0.16385869565217392
tp35
tp36
Rp37
sg1
(g2
g3
(S'1.00000000'
p38
S'0.25000000'
p39
S'1.000'
p40
S'10'
p41
S'10'
p42
tp43
tp44
Rp45
g1
(g12
g3
(F0.17288043478260873
F0.039148965119645454
F0.275
F0.1464673913043478
tp46
tp47
Rp48
sg1
(g2
g3
(S'1.00000000'
p49
S'0.01562500'
p50
S'1.000'
p51
S'10'
p52
S'10'
p53
tp54
tp55
Rp56
g1
(g12
g3
(F0.21293478260869567
F0.03546479036345748
F0.3008152173913043
F0.18478260869565216
tp57
tp58
Rp59
sg1
(g2
g3
(S'1.00000000'
p60
S'0.00781250'
p61
S'1.000'
p62
S'10'
p63
S'10'
p64
tp65
tp66
Rp67
g1
(g12
g3
(F0.24921195652173916
F0.03237715392806447
F0.3046195652173913
F0.21929347826086953
tp68
tp69
Rp70
sg1
(g2
g3
(S'1.00000000'
p71
S'0.06250000'
p72
S'1.000'
p73
S'10'
p74
S'10'
p75
tp76
tp77
Rp78
g1
(g12
g3
(F0.18089673913043475
F0.028270007058380942
F0.24782608695652172
F0.16086956521739132
tp79
tp80
Rp81
sg1
(g2
g3
(S'1.00000000'
p82
S'1.00000000'
p83
S'1.000'
p84
S'10'
p85
S'10'
p86
tp87
tp88
Rp89
g1
(g12
g3
(F0.1458695652173913
F0.024218182059351757
F0.21358695652173912
F0.12554347826086956
tp90
tp91
Rp92
s.