(dp0
ccopy_reg
_reconstructor
p1
(cscripts.archipelago_tuples
Parameters
p2
c__builtin__
tuple
p3
(S'0.02500000'
p4
S'0.50000000'
p5
S'0.025'
p6
S'70'
p7
S'1'
p8
S'40'
p9
tp10
tp11
Rp12
g1
(cscripts.archipelago_tuples
Metrics
p13
g3
(F0.3964673913043478
F0.0
F0.3964673913043478
F0.3964673913043478
tp14
tp15
Rp16
sg1
(g2
g3
(S'0.02500000'
p17
S'4.00000000'
p18
S'0.025'
p19
S'70'
p20
g8
S'40'
p21
tp22
tp23
Rp24
g1
(g13
g3
(F0.4051048136645963
F0.0009931839532860375
F0.40679347826086953
F0.4024456521739131
tp25
tp26
Rp27
sg1
(g2
g3
(S'0.02500000'
p28
S'1.00000000'
p29
S'0.025'
p30
S'70'
p31
g8
S'40'
p32
tp33
tp34
Rp35
g1
(g13
g3
(F0.3964673913043478
F0.0
F0.3964673913043478
F0.3964673913043478
tp36
tp37
Rp38
sg1
(g2
g3
(S'0.02500000'
p39
S'8.00000000'
p40
S'0.025'
p41
S'70'
p42
g8
S'40'
p43
tp44
tp45
Rp46
g1
(g13
g3
(F0.45153726708074526
F0.004489670253886679
F0.4570652173913044
F0.44375
tp47
tp48
Rp49
sg1
(g2
g3
(S'0.02500000'
p50
S'2.00000000'
p51
S'0.025'
p52
S'70'
p53
g8
S'40'
p54
tp55
tp56
Rp57
g1
(g13
g3
(F0.3994526397515529
F0.0005693793889903511
F0.4
F0.39864130434782613
tp58
tp59
Rp60
sg1
(g2
g3
(S'0.02500000'
p61
S'32.00000000'
p62
S'0.025'
p63
S'70'
p64
g8
S'40'
p65
tp66
tp67
Rp68
g1
(g13
g3
(F0.621055900621118
F0.003119849573079647
F0.6274456521739131
F0.614945652173913
tp69
tp70
Rp71
sg1
(g2
g3
(S'0.02500000'
p72
S'16.00000000'
p73
S'0.025'
p74
S'70'
p75
g8
S'40'
p76
tp77
tp78
Rp79
g1
(g13
g3
(F0.5361141304347825
F0.0027394906039886675
F0.5404891304347826
F0.5320652173913044
tp80
tp81
Rp82
s.