(dp0
ccopy_reg
_reconstructor
p1
(carchipelago_tuples
Parameters
p2
c__builtin__
tuple
p3
(S'1.000'
p4
S'10.000'
p5
S'0.500'
p6
S'90'
p7
S'10'
p8
tp9
tp10
Rp11
g1
(carchipelago_tuples
Metrics
p12
g3
(F0.12875776397515531
F0.02748607737095442
F0.24177018633540373
F0.09223602484472049
tp13
tp14
Rp15
sg1
(g2
g3
(S'1.000'
p16
S'10.000'
p17
S'0.500'
p18
S'100'
p19
S'10'
p20
tp21
tp22
Rp23
g1
(g12
g3
(F0.12521583850931678
F0.02920512173611814
F0.2701863354037267
F0.08990683229813663
tp24
tp25
Rp26
sg1
(g2
g3
(S'1.000'
p27
S'10.000'
p28
S'0.500'
p29
S'50'
p30
S'10'
p31
tp32
tp33
Rp34
g1
(g12
g3
(F0.13040062111801243
F0.031814434602271534
F0.2605590062111801
F0.09425465838509316
tp35
tp36
Rp37
sg1
(g2
g3
(S'1.000'
p38
S'10.000'
p39
S'0.500'
p40
S'30'
p41
S'10'
p42
tp43
tp44
Rp45
g1
(g12
g3
(F0.13216356107660457
F0.037269872963344955
F0.25900621118012424
F0.09316770186335402
tp46
tp47
Rp48
sg1
(g2
g3
(S'1.000'
p49
S'10.000'
p50
S'0.500'
p51
S'40'
p52
S'10'
p53
tp54
tp55
Rp56
g1
(g12
g3
(F0.1282336956521739
F0.03379791540300807
F0.24611801242236023
F0.09254658385093167
tp57
tp58
Rp59
sg1
(g2
g3
(S'1.000'
p60
S'10.000'
p61
S'0.500'
p62
S'80'
p63
S'10'
p64
tp65
tp66
Rp67
g1
(g12
g3
(F0.12925077639751556
F0.029720142939960458
F0.26614906832298135
F0.09409937888198758
tp68
tp69
Rp70
sg1
(g2
g3
(S'1.000'
p71
S'10.000'
p72
S'0.500'
p73
S'70'
p74
S'10'
p75
tp76
tp77
Rp78
g1
(g12
g3
(F0.12501552795031057
F0.03320117556669812
F0.2742236024844721
F0.08664596273291926
tp79
tp80
Rp81
sg1
(g2
g3
(S'1.000'
p82
S'10.000'
p83
S'0.500'
p84
S'60'
p85
S'10'
p86
tp87
tp88
Rp89
g1
(g12
g3
(F0.12616459627329193
F0.033095566371521154
F0.26645962732919254
F0.09037267080745341
tp90
tp91
Rp92
sg1
(g2
g3
(S'1.000'
p93
S'10.000'
p94
S'0.500'
p95
S'10'
p96
S'10'
p97
tp98
tp99
Rp100
g1
(g12
g3
(F0.15925465838509317
F0.0364083240416017
F0.23959627329192545
F0.11909937888198759
tp101
tp102
Rp103
sg1
(g2
g3
(S'1.000'
p104
S'10.000'
p105
S'0.500'
p106
S'20'
p107
S'10'
p108
tp109
tp110
Rp111
g1
(g12
g3
(F0.14277173913043478
F0.03101635484762043
F0.22158385093167698
F0.10854037267080745
tp112
tp113
Rp114
s.