(dp0
ccopy_reg
_reconstructor
p1
(cscripts.archipelago_tuples
Parameters
p2
c__builtin__
tuple
p3
(S'1.00000000'
p4
S'0.12500000'
p5
S'1.000'
p6
S'10'
p7
S'10'
p8
S'250'
p9
tp10
tp11
Rp12
g1
(cscripts.archipelago_tuples
Metrics
p13
g3
(cnumpy.core.multiarray
scalar
p14
(cnumpy
dtype
p15
(S'f8'
p16
I0
I1
tp17
Rp18
(I3
S'<'
p19
NNNI-1
I-1
I0
tp20
bS':\x02E[\r\x9e\xc5?'
p21
tp22
Rp23
g14
(g18
S'OB\xa2Rq`\x93?'
p24
tp25
Rp26
g14
(g18
S'<*\xe7b-^\x86?'
p27
tp28
Rp29
g14
(g18
S'\x1a\xcer\xd1*\x80r?'
p30
tp31
Rp32
F0.18070652173913046
F0.14456521739130432
tp33
tp34
Rp35
sg1
(g2
g3
(S'1.00000000'
p36
S'0.25000000'
p37
S'1.000'
p38
S'10'
p39
S'10'
p40
S'250'
p41
tp42
tp43
Rp44
g1
(g13
g3
(g14
(g18
S'\x160l\xb3S\xbc\xc7?'
p45
tp46
Rp47
g14
(g18
S'\x85:n\xa4\\\xb9\x99?'
p48
tp49
Rp50
g14
(g18
S'\xfad\x11\x8a\xa5\x80\x88?'
p51
tp52
Rp53
g14
(g18
S'\xb9H\x1a\xd95\x9ao?'
p54
tp55
Rp56
F0.19972826086956524
F0.16548913043478264
tp57
tp58
Rp59
sg1
(g2
g3
(S'1.00000000'
p60
S'0.00781250'
p61
S'1.000'
p62
S'10'
p63
S'10'
p64
S'250'
p65
tp66
tp67
Rp68
g1
(g13
g3
(g14
(g18
S'\x96\x91\x07Q6\xfa\xcc?'
p69
tp70
Rp71
g14
(g18
S'id\xd32\xe4\xee\xbf?'
p72
tp73
Rp74
g14
(g18
S'j\xfd\xc1\x1e\xf4\xd8\x82?'
p75
tp76
Rp77
g14
(g18
S'U\x86\x06\xca\xb0\x8aw?'
p78
tp79
Rp80
F0.24293478260869567
F0.21086956521739125
tp81
tp82
Rp83
sg1
(g2
g3
(S'1.00000000'
p84
S'0.06250000'
p85
S'1.000'
p86
S'10'
p87
S'10'
p88
S'250'
p89
tp90
tp91
Rp92
g1
(g13
g3
(g14
(g18
S'\xd1\xd4^\x150l\xc5?'
p93
tp94
Rp95
g14
(g18
S'\xb7tv\xad\x82\xca\x91?'
p96
tp97
Rp98
g14
(g18
S'\r(\xf1\xe0\xf4\x9dz?'
p99
tp100
Rp101
g14
(g18
S'\x15\xbc2\xad\xf2fe?'
p102
tp103
Rp104
F0.17663043478260868
F0.1557065217391304
tp105
tp106
Rp107
sg1
(g2
g3
(S'1.00000000'
p108
S'0.50000000'
p109
S'1.000'
p110
S'10'
p111
S'10'
p112
S'250'
p113
tp114
tp115
Rp116
g1
(g13
g3
(g14
(g18
S'p=\n\xd7\xa3p\xc9?'
p117
tp118
Rp119
g14
(g18
S'\x114\x03<~\xb1\x92?'
p120
tp121
Rp122
g14
(g18
S'\r6\x0f"\xb1O\x86?'
p123
tp124
Rp125
g14
(g18
S'\xc8\x91w\xac\xa1\xadm?'
p126
tp127
Rp128
F0.21168478260869567
F0.17663043478260868
tp129
tp130
Rp131
sg1
(g2
g3
(S'1.00000000'
p132
S'0.03125000'
p133
S'1.000'
p134
S'10'
p135
S'10'
p136
S'250'
p137
tp138
tp139
Rp140
g1
(g13
g3
(g14
(g18
S'\x82e\xe4A\x94\x8d\xc6?'
p141
tp142
Rp143
g14
(g18
S'p\xe5\xe8\\\xb6\x1f\x91?'
p144
tp145
Rp146
g14
(g18
S'\xdb\x0c\xc7\xa3)\xdd\x8e?'
p147
tp148
Rp149
g14
(g18
S'W\x9ebzI\xdc~?'
p150
tp151
Rp152
F0.19972826086956522
F0.15081521739130435
tp153
tp154
Rp155
sg1
(g2
g3
(S'1.00000000'
p156
S'0.01562500'
p157
S'1.000'
p158
S'10'
p159
S'10'
p160
S'250'
p161
tp162
tp163
Rp164
g1
(g13
g3
(g14
(g18
S'\x06\x10$\x91\xc6>\xc5?'
p165
tp166
Rp167
g14
(g18
S'\n\xf9\xe3\xfc\x17\xf9\x9e?'
p168
tp169
Rp170
g14
(g18
S'\xc2\xfbb\xda\xa5v\x82?'
p171
tp172
Rp173
g14
(g18
S'\x90\x82k\xab\xb0\xeb\x81?'
p174
tp175
Rp176
F0.18233695652173915
F0.15353260869565216
tp177
tp178
Rp179
s.