(dp0
ccopy_reg
_reconstructor
p1
(cscripts.archipelago_tuples
Parameters
p2
c__builtin__
tuple
p3
(S'0.05000000'
p4
S'1.00000000'
p5
S'0.050'
p6
S'100'
p7
S'10'
p8
S'20'
p9
tp10
tp11
Rp12
g1
(cscripts.archipelago_tuples
Metrics
p13
g3
(F0.4480027173913044
F0.016028109589146917
F0.4720108695652174
F0.4182065217391305
tp14
tp15
Rp16
sg1
(g2
g3
(S'0.05000000'
p17
S'1.00000000'
p18
S'0.050'
p19
S'100'
p20
S'2'
p21
S'20'
p22
tp23
tp24
Rp25
g1
(g13
g3
(F0.4000597826086956
F0.0018585998131577836
F0.4032608695652174
F0.3986413043478261
tp26
tp27
Rp28
sg1
(g2
g3
(S'0.05000000'
p29
S'1.00000000'
p30
S'0.050'
p31
S'100'
p32
S'20'
p33
S'20'
p34
tp35
tp36
Rp37
g1
(g13
g3
(F0.48327717391304353
F0.024120393308752146
F0.5309782608695652
F0.4665760869565217
tp38
tp39
Rp40
sg1
(g2
g3
(S'0.05000000'
p41
S'1.00000000'
p42
S'0.050'
p43
S'100'
p44
S'5'
p45
S'20'
p46
tp47
tp48
Rp49
g1
(g13
g3
(F0.4176847826086957
F0.007335843756891175
F0.4288043478260869
F0.40570652173913035
tp50
tp51
Rp52
s.