(dp0
ccopy_reg
_reconstructor
p1
(cscripts.archipelago_tuples
Parameters
p2
c__builtin__
tuple
p3
(S'1.00000000'
p4
S'0.25000000'
p5
S'1.000'
p6
S'100'
p7
S'50'
p8
tp9
tp10
Rp11
g1
(cscripts.archipelago_tuples
Metrics
p12
g3
(F0.3511847826086957
F0.06948302544536122
F0.5581521739130435
F0.26494565217391297
tp13
tp14
Rp15
sg1
(g2
g3
(S'1.00000000'
p16
S'0.25000000'
p17
S'1.000'
p18
S'100'
p19
S'20'
p20
tp21
tp22
Rp23
g1
(g12
g3
(F0.21627989130434785
F0.037754409016069516
F0.29130434782608694
F0.16494565217391305
tp24
tp25
Rp26
sg1
(g2
g3
(S'1.00000000'
p27
S'0.25000000'
p28
S'1.000'
p29
S'100'
p30
S'100'
p31
tp32
tp33
Rp34
g1
(g12
g3
(F0.32584510869565214
F0.07544401617863207
F0.5657608695652174
F0.2426630434782609
tp35
tp36
Rp37
sg1
(g2
g3
(S'1.00000000'
p38
S'0.25000000'
p39
S'1.000'
p40
S'100'
p41
S'80'
p42
tp43
tp44
Rp45
g1
(g12
g3
(F0.40969293478260865
F0.04690240825322657
F0.5989130434782608
F0.36793478260869567
tp46
tp47
Rp48
sg1
(g2
g3
(S'1.00000000'
p49
S'0.25000000'
p50
S'1.000'
p51
S'100'
p52
S'90'
p53
tp54
tp55
Rp56
g1
(g12
g3
(F0.35736141304347824
F0.06606766549051186
F0.5782608695652175
F0.2739130434782609
tp57
tp58
Rp59
sg1
(g2
g3
(S'1.00000000'
p60
S'0.25000000'
p61
S'1.000'
p62
S'100'
p63
S'60'
p64
tp65
tp66
Rp67
g1
(g12
g3
(F0.3168722826086956
F0.07853376590835666
F0.5695652173913043
F0.23369565217391308
tp68
tp69
Rp70
sg1
(g2
g3
(S'1.00000000'
p71
S'0.25000000'
p72
S'1.000'
p73
S'100'
p74
S'30'
p75
tp76
tp77
Rp78
g1
(g12
g3
(F0.2992663043478261
F0.061802662613145945
F0.4529891304347826
F0.23804347826086958
tp79
tp80
Rp81
sg1
(g2
g3
(S'1.00000000'
p82
S'0.25000000'
p83
S'1.000'
p84
S'100'
p85
S'10'
p86
tp87
tp88
Rp89
g1
(g12
g3
(F0.20877173913043476
F0.027096734492508063
F0.2733695652173913
F0.17798913043478262
tp90
tp91
Rp92
sg1
(g2
g3
(S'1.00000000'
p93
S'0.25000000'
p94
S'1.000'
p95
S'100'
p96
S'2'
p97
tp98
tp99
Rp100
g1
(g12
g3
(F0.1729565217391304
F0.008936934893264987
F0.1872282608695652
F0.15869565217391302
tp101
tp102
Rp103
sg1
(g2
g3
(S'1.00000000'
p104
S'0.25000000'
p105
S'1.000'
p106
S'100'
p107
S'70'
p108
tp109
tp110
Rp111
g1
(g12
g3
(F0.34682336956521737
F0.06382203232191981
F0.5641304347826087
F0.27119565217391306
tp112
tp113
Rp114
sg1
(g2
g3
(S'1.00000000'
p115
S'0.25000000'
p116
S'1.000'
p117
S'100'
p118
S'40'
p119
tp120
tp121
Rp122
g1
(g12
g3
(F0.31559782608695647
F0.06369796392812552
F0.49021739130434777
F0.23315217391304346
tp123
tp124
Rp125
s.