(dp0
ccopy_reg
_reconstructor
p1
(cscripts.archipelago_tuples
Parameters
p2
c__builtin__
tuple
p3
(S'1.00000000'
p4
S'0.25000000'
p5
S'1.000'
p6
S'10'
p7
S'2'
p8
S'300'
p9
tp10
tp11
Rp12
g1
(cscripts.archipelago_tuples
Metrics
p13
g3
(cnumpy.core.multiarray
scalar
p14
(cnumpy
dtype
p15
(S'f8'
p16
I0
I1
tp17
Rp18
(I3
S'<'
p19
NNNI-1
I-1
I0
tp20
bS'\x19\xb6\xd9)\xde\xb3\xc6?'
p21
tp22
Rp23
g14
(g18
S'nhwC\xa4\x1b\x91?'
p24
tp25
Rp26
g14
(g18
S'-|\x15\xbb\x90\xc9\x8e?'
p27
tp28
Rp29
g14
(g18
S'\xa3.\xaa\xdc\xd32k?'
p30
tp31
Rp32
F0.2046195652173913
F0.1546195652173913
tp33
tp34
Rp35
sg1
(g2
g3
(S'1.00000000'
p36
S'0.25000000'
p37
S'1.000'
p38
S'10'
p39
S'5'
p40
S'300'
p41
tp42
tp43
Rp44
g1
(g13
g3
(g14
(g18
S't\x04\x8a\xb6\x1a<\xc7?'
p45
tp46
Rp47
g14
(g18
S'\xe1\xaf\xb2\xf7\x94R\x92?'
p48
tp49
Rp50
g14
(g18
S'@2\xb4OJM\x93?'
p51
tp52
Rp53
g14
(g18
S'`+`\x0f\x8a\x92w?'
p54
tp55
Rp56
F0.2217391304347826
F0.15706521739130436
tp57
tp58
Rp59
sg1
(g2
g3
(S'1.00000000'
p60
S'0.25000000'
p61
S'1.000'
p62
S'10'
p63
S'1'
p64
S'300'
p65
tp66
tp67
Rp68
g1
(g13
g3
(g14
(g18
S'Kk1/\xea\x8e\xc7?'
p69
tp70
Rp71
g14
(g18
S'\xc1E\xc4\x01GV\x95?'
p72
tp73
Rp74
g14
(g18
S'\xa4\x15\xd0\xdf\xcaP\x95?'
p75
tp76
Rp77
g14
(g18
S'\xd2\xe1\x92\xea\xe8aq?'
p78
tp79
Rp80
F0.2217391304347826
F0.15244565217391304
tp81
tp82
Rp83
sg1
(g2
g3
(S'1.00000000'
p84
S'0.25000000'
p85
S'1.000'
p86
S'10'
p87
S'8'
p88
S'300'
p89
tp90
tp91
Rp92
g1
(g13
g3
(g14
(g18
S'6\xfa\xb2\x12\xaa\xfe\xc6?'
p93
tp94
Rp95
g14
(g18
S'\x9f\xb8$\xdcU\xa2\x91?'
p96
tp97
Rp98
g14
(g18
S'\x9e\r27\x997\x87?'
p99
tp100
Rp101
g14
(g18
S'\r\x80\xb4\xb1\xe0Oh?'
p102
tp103
Rp104
F0.19891304347826083
F0.16141304347826088
tp105
tp106
Rp107
sg1
(g2
g3
(S'1.00000000'
p108
S'0.25000000'
p109
S'1.000'
p110
S'10'
p111
S'6'
p112
S'300'
p113
tp114
tp115
Rp116
g1
(g13
g3
(g14
(g18
S'\xa53tE\x9c\x1f\xc7?'
p117
tp118
Rp119
g14
(g18
S'\xf9\n\x11o\xd9\x06\x97?'
p120
tp121
Rp122
g14
(g18
S'R#0D\x10\xb5\x8e?'
p123
tp124
Rp125
g14
(g18
S'\xe0\xfd\x8c\x12\xd3\xd6r?'
p126
tp127
Rp128
F0.20543478260869566
F0.15163043478260868
tp129
tp130
Rp131
sg1
(g2
g3
(S'1.00000000'
p132
S'0.25000000'
p133
S'1.000'
p134
S'10'
p135
S'9'
p136
S'300'
p137
tp138
tp139
Rp140
g1
(g13
g3
(g14
(g18
S'sAS{U\xc0\xc6?'
p141
tp142
Rp143
g14
(g18
S'\xa5JHk\x0c\x85\x9a?'
p144
tp145
Rp146
g14
(g18
S'z\x90\x08\xcd\x97M\x8c?'
p147
tp148
Rp149
g14
(g18
S'P\x86"\xa1(\x9fq?'
p150
tp151
Rp152
F0.20896739130434785
F0.16032608695652176
tp153
tp154
Rp155
sg1
(g2
g3
(S'1.00000000'
p156
S'0.25000000'
p157
S'1.000'
p158
S'10'
p159
S'10'
p160
S'300'
p161
tp162
tp163
Rp164
g1
(g13
g3
(g14
(g18
S'f\xe8\x8a8?\x0e\xc6?'
p165
tp166
Rp167
g14
(g18
S'\x9b\xc4\xc3\x1bw\xb6\x93?'
p168
tp169
Rp170
g14
(g18
S'\x1b\xed\xe8l\xa8x\x83?'
p171
tp172
Rp173
g14
(g18
S'\x91\x7f.A\xc2Zv?'
p174
tp175
Rp176
F0.18478260869565216
F0.15543478260869564
tp177
tp178
Rp179
sg1
(g2
g3
(S'1.00000000'
p180
S'0.25000000'
p181
S'1.000'
p182
S'10'
p183
S'7'
p184
S'300'
p185
tp186
tp187
Rp188
g1
(g13
g3
(g14
(g18
S'\xd0\x11(\xdaj\xf0\xc6?'
p189
tp190
Rp191
g14
(g18
S'\xc5\x84K\x81\x7f\x1b\x88?'
p192
tp193
Rp194
g14
(g18
S'\nO\xcd\xc9\x1c\x8f\x8c?'
p195
tp196
Rp197
g14
(g18
S'\x94\xc7\xd1u#nn?'
p198
tp199
Rp200
F0.20706521739130435
F0.15543478260869564
tp201
tp202
Rp203
sg1
(g2
g3
(S'1.00000000'
p204
S'0.25000000'
p205
S'1.000'
p206
S'10'
p207
S'3'
p208
S'300'
p209
tp210
tp211
Rp212
g1
(g13
g3
(g14
(g18
S']\x8f\xc2\xf5(\\\xc7?'
p213
tp214
Rp215
g14
(g18
S'#\xc43\x9f,b\x90?'
p216
tp217
Rp218
g14
(g18
S'\xbe\x87\x12<?\x92\x91?'
p219
tp220
Rp221
g14
(g18
S'N\xaa\xdd\x9b\x96\xdap?'
p222
tp223
Rp224
F0.21847826086956523
F0.15896739130434784
tp225
tp226
Rp227
sg1
(g2
g3
(S'1.00000000'
p228
S'0.25000000'
p229
S'1.000'
p230
S'10'
p231
S'4'
p232
S'300'
p233
tp234
tp235
Rp236
g1
(g13
g3
(g14
(g18
S'\xcd\x8f\x03\x08\x92H\xc7?'
p237
tp238
Rp239
g14
(g18
S'a5\xa1 (1\x91?'
p240
tp241
Rp242
g14
(g18
S'r;\x17X\xde\xa5\x94?'
p243
tp244
Rp245
g14
(g18
S'#\xff\xd5\xd7\x9c\xd2y?'
p246
tp247
Rp248
F0.2173913043478261
F0.15081521739130432
tp249
tp250
Rp251
s.