(dp0
ccopy_reg
_reconstructor
p1
(cscripts.archipelago_tuples
Parameters
p2
c__builtin__
tuple
p3
(S'1.00000000'
p4
S'1.00000000'
p5
S'1.000'
p6
S'100'
p7
S'20'
p8
S'150'
p9
tp10
tp11
Rp12
g1
(cscripts.archipelago_tuples
Metrics
p13
g3
(cnumpy.core.multiarray
scalar
p14
(cnumpy
dtype
p15
(S'f8'
p16
I0
I1
tp17
Rp18
(I3
S'<'
p19
NNNI-1
I-1
I0
tp20
bS'(;\xd2\xc6M\xeb\xc4?'
p21
tp22
Rp23
g14
(g18
S'!\x1d.\xba\xae\xd0\x7f?'
p24
tp25
Rp26
g14
(g18
S"\x0e'\r\x98\xacaR?"
p27
tp28
Rp29
g14
(g18
S'nB\xdf{g7+?'
p30
tp31
Rp32
F0.16624161039650756
F0.16068286865032338
tp33
tp34
Rp35
sg1
(g2
g3
(S'1.00000000'
p36
S'0.25000000'
p37
S'1.000'
p38
S'100'
p39
S'20'
p40
S'150'
p41
tp42
tp43
Rp44
g1
(g13
g3
(g14
(g18
S'\xc4T\xbcc\xc1\x89\xc4?'
p45
tp46
Rp47
g14
(g18
S'\x99\x10\x8bG\x93Ow?'
p48
tp49
Rp50
g14
(g18
S'\xf2\xb5\xd5~\xd0\x97W?'
p51
tp52
Rp53
g14
(g18
S'L\xf8x\xbc\xbf\x9d3?'
p54
tp55
Rp56
F0.16421518687023753
F0.15693658112294895
tp57
tp58
Rp59
sg1
(g2
g3
(S'1.00000000'
p60
S'4.00000000'
p61
S'1.000'
p62
S'100'
p63
S'20'
p64
S'150'
p65
tp66
tp67
Rp68
g1
(g13
g3
(g14
(g18
S'E\x90=\x07p\xea\xc6?'
p69
tp70
Rp71
g14
(g18
S'\x88n\x9c$X\xd4\x80?'
p72
tp73
Rp74
g14
(g18
S'\xe6\xb7\xd2%\xb2<V?'
p75
tp76
Rp77
g14
(g18
S'17\x8a/\xbc#B?'
p78
tp79
Rp80
F0.18168973988362996
F0.1763765757970548
tp81
tp82
Rp83
sg1
(g2
g3
(S'1.00000000'
p84
S'2.00000000'
p85
S'1.000'
p86
S'100'
p87
S'20'
p88
S'150'
p89
tp90
tp91
Rp92
g1
(g13
g3
(g14
(g18
S'>\x0c\x11\xad\xd4w\xc5?'
p93
tp94
Rp95
g14
(g18
S'\x92\xc2\x07\xe4\x90&|?'
p96
tp97
Rp98
g14
(g18
S'\x96\xf1Ib1tQ?'
p99
tp100
Rp101
g14
(g18
S'\xc2\x16C\xa6:,0?'
p102
tp103
Rp104
F0.17032655614556136
F0.1651670112907448
tp105
tp106
Rp107
sg1
(g2
g3
(S'1.00000000'
p108
S'8.00000000'
p109
S'1.000'
p110
S'100'
p111
S'20'
p112
S'150'
p113
tp114
tp115
Rp116
g1
(g13
g3
(g14
(g18
S'\xc0f\x1dKCG\xca?'
p117
tp118
Rp119
g14
(g18
S'\xf3\xb9l\xdd\xeb\x15w?'
p120
tp121
Rp122
g14
(g18
S'P\x93z*\x05\xe7\\?'
p123
tp124
Rp125
g14
(g18
S'4\xb4)\x8f@\xccB?'
p126
tp127
Rp128
F0.20816300781759794
F0.20232780614650436
tp129
tp130
Rp131
sg1
(g2
g3
(S'1.00000000'
p132
S'0.50000000'
p133
S'1.000'
p134
S'100'
p135
S'20'
p136
S'150'
p137
tp138
tp139
Rp140
g1
(g13
g3
(g14
(g18
S'S\xa7\x18DG\x96\xc4?'
p141
tp142
Rp143
g14
(g18
S'\xf2\xc1 \x1d\x13\x99q?'
p144
tp145
Rp146
g14
(g18
S'\xd2F\x14\x84B\nT?'
p147
tp148
Rp149
g14
(g18
S'p\x8bzv\x0b<(?'
p150
tp151
Rp152
F0.1636929418323339
F0.1578269993414298
tp153
tp154
Rp155
sg1
(g2
g3
(S'1.00000000'
p156
S'0.12500000'
p157
S'1.000'
p158
S'100'
p159
S'20'
p160
S'150'
p161
tp162
tp163
Rp164
g1
(g13
g3
(g14
(g18
S'\x1f\x02!c\xba\xab\xc4?'
p165
tp166
Rp167
g14
(g18
S'\xdc\xc7\xda\x1b\x8f\x95j?'
p168
tp169
Rp170
g14
(g18
S'j\xbdI\x80f7_?'
p171
tp172
Rp173
g14
(g18
S'C\x1e0{|\xdf9?'
p174
tp175
Rp176
F0.16624179899049413
F0.15675191932100127
tp177
tp178
Rp179
s.