(dp0
ccopy_reg
_reconstructor
p1
(cscripts.archipelago_tuples
Parameters
p2
c__builtin__
tuple
p3
(S'10.00000000'
p4
S'0.25000000'
p5
S'10.000'
p6
S'3'
p7
g7
S'500'
p8
tp9
tp10
Rp11
g1
(cscripts.archipelago_tuples
Metrics
p12
g3
(cnumpy.core.multiarray
scalar
p13
(cnumpy
dtype
p14
(S'f8'
p15
I0
I1
tp16
Rp17
(I3
S'<'
p18
NNNI-1
I-1
I0
tp19
bS'X\xc8B\x16\xb2\x90\xc5?'
p20
tp21
Rp22
g13
(g17
S'\xde+\xb3o\xbd\xe2\x8e?'
p23
tp24
Rp25
F0.0
F0.1684782608695652
tp26
tp27
Rp28
sg1
(g2
g3
(S'10.00000000'
p29
S'0.25000000'
p30
S'10.000'
p31
S'1'
p32
g32
S'500'
p33
tp34
tp35
Rp36
g1
(g12
g3
(g13
(g17
S'r\xbf.\xa9|\x18\xc3?'
p37
tp38
Rp39
g13
(g17
S'\x15\xf02\x00\r\xdf\x98?'
p40
tp41
Rp42
F0.0
F0.14918478260869567
tp43
tp44
Rp45
sg1
(g2
g3
(S'10.00000000'
p46
S'0.25000000'
p47
S'10.000'
p48
S'4'
p49
g49
S'500'
p50
tp51
tp52
Rp53
g1
(g12
g3
(g13
(g17
S'\x06\xcf\x11(\xdaj\xc4?'
p54
tp55
Rp56
g13
(g17
S'\xd4e\xc9\xbc\xd2\xb5\x96?'
p57
tp58
Rp59
F0.0
F0.15951086956521737
tp60
tp61
Rp62
sg1
(g2
g3
(S'10.00000000'
p63
S'0.25000000'
p64
S'10.000'
p65
S'5'
p66
g66
S'500'
p67
tp68
tp69
Rp70
g1
(g12
g3
(g13
(g17
S'\xcf\x11(\xdaj\xf0\xc4?'
p71
tp72
Rp73
g13
(g17
S'\xff\x1b\xf0\xaf\x07\x97\x91?'
p74
tp75
Rp76
F0.0
F0.16358695652173913
tp77
tp78
Rp79
sg1
(g2
g3
(S'10.00000000'
p80
S'0.25000000'
p81
S'10.000'
p82
S'2'
p83
g83
S'500'
p84
tp85
tp86
Rp87
g1
(g12
g3
(g13
(g17
S'\xd2V\x83\xe7\x08\x14\xc5?'
p88
tp89
Rp90
g13
(g17
S'\xd9\xa8\xfb\xdd\xc9\x12\x94?'
p91
tp92
Rp93
F0.0
F0.16467391304347828
tp94
tp95
Rp96
s.