(dp0
ccopy_reg
_reconstructor
p1
(cscripts.archipelago_tuples
Parameters
p2
c__builtin__
tuple
p3
(S'1.00000000'
p4
S'2.00000000'
p5
S'1.000'
p6
S'10'
p7
S'5'
p8
S'500'
p9
tp10
tp11
Rp12
g1
(cscripts.archipelago_tuples
Metrics
p13
g3
(cnumpy.core.multiarray
scalar
p14
(cnumpy
dtype
p15
(S'f8'
p16
I0
I1
tp17
Rp18
(I3
S'<'
p19
NNNI-1
I-1
I0
tp20
bS'\x0ctH\xbb\x12\xb3\xc4?'
p21
tp22
Rp23
g14
(g18
S'y\xa9\x17\xa8b\x1bi?'
p24
tp25
Rp26
g14
(g18
S'\xcar\xefOr\xa4k?'
p27
tp28
Rp29
g14
(g18
S'C\xfa_H\xdc\xc6L?'
p30
tp31
Rp32
F0.16771596274589826
F0.1563525998435424
tp33
tp34
Rp35
sg1
(g2
g3
(S'1.00000000'
p36
S'2.00000000'
p37
S'1.000'
p38
S'25'
p39
g8
S'500'
p40
tp41
tp42
Rp43
g1
(g13
g3
(g14
(g18
S'.\xb3\xb1\x01FG\xc4?'
p44
tp45
Rp46
g14
(g18
S'\x01a\xd9\xea\x0f\xbcu?'
p47
tp48
Rp49
g14
(g18
S'\x1aT\xf5?\x1b\xe4P?'
p50
tp51
Rp52
g14
(g18
S'1ll+,\xc0"?'
p53
tp54
Rp55
F0.16046802238082555
F0.1565062379346997
tp56
tp57
Rp58
sg1
(g2
g3
(S'1.00000000'
p59
S'2.00000000'
p60
S'1.000'
p61
S'40'
p62
g8
S'500'
p63
tp64
tp65
Rp66
g1
(g13
g3
(g14
(g18
S'\x08B]\x1aQ+\xc4?'
p67
tp68
Rp69
g14
(g18
S'\xb8\xa7\xcag\xf7\x03|?'
p70
tp71
Rp72
g14
(g18
S'\x8a\x83\x1c\x1e\xf5sN?'
p73
tp74
Rp75
g14
(g18
S'\x87\x06<\xd62\xf3%?'
p76
tp77
Rp78
F0.15933170589295859
F0.15564631536384682
tp79
tp80
Rp81
sg1
(g2
g3
(S'1.00000000'
p82
S'2.00000000'
p83
S'1.000'
p84
g8
g8
S'500'
p85
tp86
tp87
Rp88
g1
(g13
g3
(g14
(g18
S'\xd4\x0f\x06\x19\x97\xa5\xc4?'
p89
tp90
Rp91
g14
(g18
S'\xc6\xcd~^\xc7\xb9o?'
p92
tp93
Rp94
g14
(g18
S's\x11TPlLg?'
p95
tp96
Rp97
g14
(g18
S'\xe9\\\xb4-?\xa6U?'
p98
tp99
Rp100
F0.1657809412952182
F0.1582568993338106
tp101
tp102
Rp103
sg1
(g2
g3
(S'1.00000000'
p104
S'2.00000000'
p105
S'1.000'
p106
S'45'
p107
g8
S'500'
p108
tp109
tp110
Rp111
g1
(g13
g3
(g14
(g18
S'\xfa@\xa3\xf9\xf0%\xc4?'
p112
tp113
Rp114
g14
(g18
S'\xee\x92\xd4\xd0\xf4\xf6\x81?'
p115
tp116
Rp117
g14
(g18
S'F\xb4\xae\x82\x1a\xf8H?'
p118
tp119
Rp120
g14
(g18
S'\xb0\x9d+IO\x1f\x1c?'
p121
tp122
Rp123
F0.15902467488282654
F0.15579995345500414
tp124
tp125
Rp126
sg1
(g2
g3
(S'1.00000000'
p127
S'2.00000000'
p128
S'1.000'
p129
S'35'
p130
g8
S'500'
p131
tp132
tp133
Rp134
g1
(g13
g3
(g14
(g18
S'$W\xa3\n\x1bJ\xc4?'
p135
tp136
Rp137
g14
(g18
S'\xfd\x0f\xe7\x11\xd2W{?'
p138
tp139
Rp140
g14
(g18
S'\xd3\xde\x8a\xbf\xe4\xd2O?'
p141
tp142
Rp143
g14
(g18
S'3\xf1`X]\x18(?'
p144
tp145
Rp146
F0.1606218396362701
F0.15644506747515652
tp147
tp148
Rp149
sg1
(g2
g3
(S'1.00000000'
p150
S'2.00000000'
p151
S'1.000'
p152
S'50'
p153
g8
S'500'
p154
tp155
tp156
Rp157
g1
(g13
g3
(g14
(g18
S'\xe2z3\xa8\xf01\xc4?'
p158
tp159
Rp160
g14
(g18
S'\xf4\x0c\x10\x11U\xebi?'
p161
tp162
Rp163
g14
(g18
S'\x83g\x8f\xb6H\\J?'
p164
tp165
Rp166
g14
(g18
S'\x0e}\x0e\x06\xbbY\x19?'
p167
tp168
Rp169
F0.15948529683561924
F0.15604560655220773
tp170
tp171
Rp172
sg1
(g2
g3
(S'1.00000000'
p173
S'2.00000000'
p174
S'1.000'
p175
S'30'
p176
g8
S'500'
p177
tp178
tp179
Rp180
g1
(g13
g3
(g14
(g18
S"\x02\x16;\x18'A\xc4?"
p181
tp182
Rp183
g14
(g18
S'\xdc\x04t~\xad-}?'
p184
tp185
Rp186
g14
(g18
S'\xc5v\xf8Y\xe1\x03Q?'
p187
tp188
Rp189
g14
(g18
S'\x15s\xe4\x9e\n[1?'
p190
tp191
Rp192
F0.16022229384602732
F0.15567694302726542
tp193
tp194
Rp195
sg1
(g2
g3
(S'1.00000000'
p196
S'2.00000000'
p197
S'1.000'
p198
S'20'
p199
g8
S'500'
p200
tp201
tp202
Rp203
g1
(g13
g3
(g14
(g18
S'B\x01\x95\x1e3)\xc4?'
p204
tp205
Rp206
g14
(g18
S'd\xc9\xd7\xd7\t\x06z?'
p207
tp208
Rp209
g14
(g18
S'\xd0\x0c\xa9$\x10\xcdW?'
p210
tp211
Rp212
g14
(g18
S'\xa6e\xe8\xb7\xe7i2?'
p213
tp214
Rp215
F0.1607136188998332
F0.15500124849219107
tp216
tp217
Rp218
sg1
(g2
g3
(S'1.00000000'
p219
S'2.00000000'
p220
S'1.000'
p221
S'15'
p222
g8
S'500'
p223
tp224
tp225
Rp226
g1
(g13
g3
(g14
(g18
S'\xc8@\xbc\xc2\rE\xc4?'
p227
tp228
Rp229
g14
(g18
S'\x19i\x83\xabKVq?'
p230
tp231
Rp232
g14
(g18
S'\xa5\x146}iV]?'
p233
tp234
Rp235
g14
(g18
S'\xebp(U\xa3g<?'
p236
tp237
Rp238
F0.16142031828629927
F0.15497086600095505
tp239
tp240
Rp241
s.