(dp0
ccopy_reg
_reconstructor
p1
(cscripts.archipelago_tuples
Parameters
p2
c__builtin__
tuple
p3
(S'1.00000000'
p4
S'4.00000000'
p5
S'0.333'
p6
S'10'
p7
S'5'
p8
S'300'
p9
tp10
tp11
Rp12
g1
(cscripts.archipelago_tuples
Metrics
p13
g3
(cnumpy.core.multiarray
scalar
p14
(cnumpy
dtype
p15
(S'f8'
p16
I0
I1
tp17
Rp18
(I3
S'<'
p19
NNNI-1
I-1
I0
tp20
bS'rP\x81!\xe5&\xc5?'
p21
tp22
Rp23
g14
(g18
S'\xde\xd7^\xc4\x08\x87~?'
p24
tp25
Rp26
g14
(g18
S'\xae\x17\xf3>F\xe8\x10?'
p27
tp28
Rp29
g14
(g18
S'\x85\xa3l^i\\)?'
p30
tp31
Rp32
F0.1654429714415898
F0.16522798372660208
tp33
tp34
Rp35
sg1
(g2
g3
(S'1.00000000'
p36
S'4.00000000'
p37
S'0.500'
p38
S'10'
p39
g8
S'300'
p40
tp41
tp42
Rp43
g1
(g13
g3
(g14
(g18
S'\xb9\x1b\x03Q\xbb:\xc5?'
p44
tp45
Rp46
g14
(g18
S'\xf0\xc0g\xa3\xcc1r?'
p47
tp48
Rp49
g14
(g18
S'\xa4\x88\x83l\x99R\x03?'
p50
tp51
Rp52
g14
(g18
S'\xf5L\xc5"\xe6\xfb\x1c?'
p53
tp54
Rp55
F0.1659654145031793
F0.1658425643803292
tp56
tp57
Rp58
sg1
(g2
g3
(S'1.00000000'
p59
S'4.00000000'
p60
S'1.000'
p61
S'10'
p62
g8
S'300'
p63
tp64
tp65
Rp66
g1
(g13
g3
(g14
(g18
S'w\x80B<\xbaw\xc5?'
p67
tp68
Rp69
g14
(g18
S'\xb96\xb3>\x96\x0c{?'
p70
tp71
Rp72
g14
(g18
S'\x00\x00\x00\x00\x00\x00\x00\x00'
p73
tp74
Rp75
g14
(g18
S'\x00\x00\x00\x00\x00\x00\x00\x00'
p76
tp77
Rp78
F0.16771629278537478
F0.16771629278537478
tp79
tp80
Rp81
sg1
(g2
g3
(S'1.00000000'
p82
S'4.00000000'
p83
S'0.250'
p84
S'10'
p85
g8
S'300'
p86
tp87
tp88
Rp89
g1
(g13
g3
(g14
(g18
S'\xe6`\x1e\x9e,"\xc5?'
p90
tp91
Rp92
g14
(g18
S'OD\x15z\xfe|\x80?'
p93
tp94
Rp95
g14
(g18
S'\x00\x00\x00\x00\x00\x00\x00\x00'
p96
tp97
Rp98
g14
(g18
S'\x00\x00\x00\x00\x00\x00\x00\x00'
p99
tp100
Rp101
F0.16510541649473182
F0.16510541649473182
tp102
tp103
Rp104
s.