(dp0
ccopy_reg
_reconstructor
p1
(cscripts.archipelago_tuples
Parameters
p2
c__builtin__
tuple
p3
(S'1.00000000'
p4
S'0.12500000'
p5
S'1.000'
p6
S'1'
p7
g7
S'300'
p8
tp9
tp10
Rp11
g1
(cscripts.archipelago_tuples
Metrics
p12
g3
(F0.4638560297731539
F0.0
F0.4638560297731539
F0.4638560297731539
tp13
tp14
Rp15
sg1
(g2
g3
(S'1.00000000'
p16
S'0.06250000'
p17
S'1.000'
p18
g7
g7
S'300'
p19
tp20
tp21
Rp22
g1
(g12
g3
(F0.463730738717355
F0.0
F0.463730738717355
F0.463730738717355
tp23
tp24
Rp25
sg1
(g2
g3
(S'1.00000000'
p26
S'0.50000000'
p27
S'1.000'
p28
g7
g7
S'300'
p29
tp30
tp31
Rp32
g1
(g12
g3
(F0.4637292874696044
F0.0
F0.4637292874696044
F0.4637292874696044
tp33
tp34
Rp35
sg1
(g2
g3
(S'1.00000000'
p36
S'0.25000000'
p37
S'1.000'
p38
g7
g7
S'300'
p39
tp40
tp41
Rp42
g1
(g12
g3
(F0.4636020614168048
F0.0
F0.4636020614168048
F0.4636020614168048
tp43
tp44
Rp45
sg1
(g2
g3
(S'1.00000000'
p46
S'0.03125000'
p47
S'1.000'
p48
g7
g7
S'300'
p49
tp50
tp51
Rp52
g1
(g12
g3
(F0.456612852250079
F0.0
F0.456612852250079
F0.456612852250079
tp53
tp54
Rp55
s.