(dp0
ccopy_reg
_reconstructor
p1
(cscripts.archipelago_tuples
Parameters
p2
c__builtin__
tuple
p3
(S'1.00000000'
p4
S'1.00000000'
p5
S'1.000'
p6
S'50'
p7
S'50'
p8
tp9
tp10
Rp11
g1
(cscripts.archipelago_tuples
Metrics
p12
g3
(F0.21619565217391307
F0.07545775551254173
F0.4891304347826087
F0.13913043478260867
tp13
tp14
Rp15
sg1
(g2
g3
(S'1.00000000'
p16
S'0.03125000'
p17
S'1.000'
p18
S'50'
p19
S'50'
p20
tp21
tp22
Rp23
g1
(g12
g3
(F0.25269021739130443
F0.07126968046449343
F0.48315217391304344
F0.18206521739130438
tp24
tp25
Rp26
sg1
(g2
g3
(S'1.00000000'
p27
S'0.12500000'
p28
S'1.000'
p29
S'50'
p30
S'50'
p31
tp32
tp33
Rp34
g1
(g12
g3
(F0.21404347826086956
F0.07705274003807892
F0.49782608695652175
F0.14918478260869567
tp35
tp36
Rp37
sg1
(g2
g3
(S'1.00000000'
p38
S'8.00000000'
p39
S'1.000'
p40
S'50'
p41
S'50'
p42
tp43
tp44
Rp45
g1
(g12
g3
(F0.37259239130434774
F0.06533070882853768
F0.503804347826087
F0.17119565217391303
tp46
tp47
Rp48
sg1
(g2
g3
(S'1.00000000'
p49
S'0.50000000'
p50
S'1.000'
p51
S'50'
p52
S'50'
p53
tp54
tp55
Rp56
g1
(g12
g3
(F0.22034239130434785
F0.07700450795276964
F0.4815217391304348
F0.1532608695652174
tp57
tp58
Rp59
sg1
(g2
g3
(S'1.00000000'
p60
S'16.00000000'
p61
S'1.000'
p62
S'50'
p63
S'50'
p64
tp65
tp66
Rp67
g1
(g12
g3
(F0.38146195652173914
F0.08478021669389872
F0.5877717391304349
F0.15407608695652175
tp68
tp69
Rp70
sg1
(g2
g3
(S'1.00000000'
p71
S'4.00000000'
p72
S'1.000'
p73
S'50'
p74
S'50'
p75
tp76
tp77
Rp78
g1
(g12
g3
(F0.3426630434782608
F0.08651809617971087
F0.5059782608695652
F0.15461956521739129
tp79
tp80
Rp81
sg1
(g2
g3
(S'1.00000000'
p82
S'0.06250000'
p83
S'1.000'
p84
S'50'
p85
S'50'
p86
tp87
tp88
Rp89
g1
(g12
g3
(F0.2777282608695652
F0.07128131974024392
F0.513858695652174
F0.20217391304347826
tp90
tp91
Rp92
sg1
(g2
g3
(S'1.00000000'
p93
S'2.00000000'
p94
S'1.000'
p95
S'50'
p96
S'50'
p97
tp98
tp99
Rp100
g1
(g12
g3
(F0.23154347826086955
F0.06002720456494728
F0.46630434782608693
F0.1451086956521739
tp101
tp102
Rp103
sg1
(g2
g3
(S'1.00000000'
p104
S'0.25000000'
p105
S'1.000'
p106
S'50'
p107
S'50'
p108
tp109
tp110
Rp111
g1
(g12
g3
(F0.23539130434782604
F0.06535912411392296
F0.49728260869565216
F0.18233695652173912
tp112
tp113
Rp114
s.