(dp0
ccopy_reg
_reconstructor
p1
(cscripts.archipelago_tuples
Parameters
p2
c__builtin__
tuple
p3
(S'1.00000000'
p4
S'1.00000000'
p5
S'1.000'
p6
S'50'
p7
S'1'
p8
S'35'
p9
tp10
tp11
Rp12
g1
(cscripts.archipelago_tuples
Metrics
p13
g3
(F0.21313043478260868
F0.022127676471152415
F0.23804347826086958
F0.18777173913043482
tp14
tp15
Rp16
sg1
(g2
g3
(S'1.00000000'
p17
S'1.00000000'
p18
S'1.000'
p19
S'50'
p20
S'25'
p21
S'35'
p22
tp23
tp24
Rp25
g1
(g13
g3
(F0.3737608695652174
F0.0648348539203462
F0.5442934782608696
F0.2823369565217391
tp26
tp27
Rp28
sg1
(g2
g3
(S'1.00000000'
p29
S'1.00000000'
p30
S'1.000'
p31
S'50'
p32
S'10'
p33
S'35'
p34
tp35
tp36
Rp37
g1
(g13
g3
(F0.2889184782608695
F0.04573653868946043
F0.360054347826087
F0.21983695652173912
tp38
tp39
Rp40
sg1
(g2
g3
(S'1.00000000'
p41
S'1.00000000'
p42
S'1.000'
p43
S'50'
p44
S'45'
p45
S'35'
p46
tp47
tp48
Rp49
g1
(g13
g3
(F0.3471032608695653
F0.07592777375659529
F0.5744565217391304
F0.2519021739130435
tp50
tp51
Rp52
sg1
(g2
g3
(S'1.00000000'
p53
S'1.00000000'
p54
S'1.000'
p55
S'50'
p56
S'15'
p57
S'35'
p58
tp59
tp60
Rp61
g1
(g13
g3
(F0.3065597826086956
F0.056829670603062765
F0.40760869565217395
F0.24864130434782608
tp62
tp63
Rp64
sg1
(g2
g3
(S'1.00000000'
p65
S'1.00000000'
p66
S'1.000'
p67
S'50'
p68
S'30'
p69
S'35'
p70
tp71
tp72
Rp73
g1
(g13
g3
(F0.33695652173913043
F0.07623129462883171
F0.5641304347826088
F0.22989130434782606
tp74
tp75
Rp76
sg1
(g2
g3
(S'1.00000000'
p77
S'1.00000000'
p78
S'1.000'
p79
S'50'
p80
S'35'
p81
S'35'
p82
tp83
tp84
Rp85
g1
(g13
g3
(F0.3387445652173913
F0.08794011339992314
F0.5622282608695652
F0.19565217391304346
tp86
tp87
Rp88
sg1
(g2
g3
(S'1.00000000'
p89
S'1.00000000'
p90
S'1.000'
p91
S'50'
p92
S'20'
p93
S'35'
p94
tp95
tp96
Rp97
g1
(g13
g3
(F0.3027771739130435
F0.07091113010960115
F0.5290760869565218
F0.19483695652173913
tp98
tp99
Rp100
sg1
(g2
g3
(S'1.00000000'
p101
S'1.00000000'
p102
S'1.000'
p103
S'50'
p104
S'40'
p105
S'35'
p106
tp107
tp108
Rp109
g1
(g13
g3
(F0.37227173913043476
F0.0615257699816642
F0.563858695652174
F0.30570652173913043
tp110
tp111
Rp112
sg1
(g2
g3
(S'1.00000000'
p113
S'1.00000000'
p114
S'1.000'
p115
S'50'
p116
S'50'
p117
S'35'
p118
tp119
tp120
Rp121
g1
(g13
g3
(F0.29102173913043483
F0.06890153029829292
F0.5290760869565216
F0.19211956521739132
tp122
tp123
Rp124
sg1
(g2
g3
(S'1.00000000'
p125
S'1.00000000'
p126
S'1.000'
p127
S'50'
p128
S'5'
p129
S'35'
p130
tp131
tp132
Rp133
g1
(g13
g3
(F0.25651086956521735
F0.022938631166362217
F0.3138586956521739
F0.225
tp134
tp135
Rp136
s.