(dp0
ccopy_reg
_reconstructor
p1
(cscripts.archipelago_tuples
Parameters
p2
c__builtin__
tuple
p3
(S'0.02500000'
p4
S'1.00000000'
p5
S'0.025'
p6
S'5'
p7
g7
S'100'
p8
tp9
tp10
Rp11
g1
(cscripts.archipelago_tuples
Metrics
p12
g3
(F0.6011834764156114
F0.03728416371245803
F0.633605254161856
F0.5418710775998297
tp13
tp14
Rp15
s.