(dp0
ccopy_reg
_reconstructor
p1
(cscripts.archipelago_tuples
Parameters
p2
c__builtin__
tuple
p3
(S'1.00000000'
p4
S'0.12500000'
p5
S'1.000'
p6
S'10'
p7
S'5'
p8
S'75'
p9
tp10
tp11
Rp12
g1
(cscripts.archipelago_tuples
Metrics
p13
g3
(cnumpy.core.multiarray
scalar
p14
(cnumpy
dtype
p15
(S'f8'
p16
I0
I1
tp17
Rp18
(I3
S'<'
p19
NNNI-1
I-1
I0
tp20
bS'\x1b9*\xf9\x0b|\xca?'
p21
tp22
Rp23
g14
(g18
S'\x9fJ!\xd0\x06d\x92?'
p24
tp25
Rp26
g14
(g18
S'\x12Yu\x81\x7fk\x93?'
p27
tp28
Rp29
g14
(g18
S'\xd5.\x00>\xcd6\x8d?'
p30
tp31
Rp32
F0.23340834030502436
F0.1777589319997978
tp33
tp34
Rp35
sg1
(g2
g3
(S'1.00000000'
p36
S'2.00000000'
p37
S'1.000'
p38
S'10'
p39
g8
S'75'
p40
tp41
tp42
Rp43
g1
(g13
g3
(g14
(g18
S'\xf0\xed#\x9f\xf0\x10\xc9?'
p44
tp45
Rp46
g14
(g18
S'\x00\xbd\xa1<K-o?'
p47
tp48
Rp49
g14
(g18
S'\x1e\x94\x97\xa1\xec\x15\x8e?'
p50
tp51
Rp52
g14
(g18
S'\x83.\x81Q\xc9\xbee?'
p53
tp54
Rp55
F0.22434836062791236
F0.17401185237767983
tp56
tp57
Rp58
sg1
(g2
g3
(S'1.00000000'
p59
S'64.00000000'
p60
S'1.000'
p61
S'10'
p62
g8
S'75'
p63
tp64
tp65
Rp66
g1
(g13
g3
(g14
(g18
S'\x8a\x18\x90\x08\xda\xd2\xce?'
p67
tp68
Rp69
g14
(g18
S'\xbf\xf2\x8bG\x85F\x83?'
p70
tp71
Rp72
g14
(g18
S'\x00\x00\x00\x00\x00\x00\x00\x00'
p73
tp74
Rp75
g14
(g18
S'\x00\x00\x00\x00\x00\x00\x00\x00'
p76
tp77
Rp78
F0.2408096830187712
F0.2408096830187712
tp79
tp80
Rp81
sg1
(g2
g3
(S'1.00000000'
p82
S'32.00000000'
p83
S'1.000'
p84
S'10'
p85
g8
S'75'
p86
tp87
tp88
Rp89
g1
(g13
g3
(g14
(g18
S' \x08\x10\xe0\xd9\xd2\xce?'
p90
tp91
Rp92
g14
(g18
S'T<\xca\x0f\xac\xc8\x80?'
p93
tp94
Rp95
g14
(g18
S'\x00\x00\x00\x00\x00\x00\x00\x00'
p96
tp97
Rp98
g14
(g18
S'\x00\x00\x00\x00\x00\x00\x00\x00'
p99
tp100
Rp101
F0.24080966415937244
F0.24080966415937244
tp102
tp103
Rp104
sg1
(g2
g3
(S'1.00000000'
p105
S'0.06250000'
p106
S'1.000'
p107
S'10'
p108
g8
S'75'
p109
tp110
tp111
Rp112
g1
(g13
g3
(g14
(g18
S'\x8b\xcc+\xd8\x12C\xce?'
p113
tp114
Rp115
g14
(g18
S'w\xb7\xe4\xff1\x1c\xa8?'
p116
tp117
Rp118
g14
(g18
S'\xf20\xe5R\xd6\x14\xa6?'
p119
tp120
Rp121
g14
(g18
S'\xfd9\xb4\x8dC|\xa6?'
p122
tp123
Rp124
F0.2873393933610391
F0.18150558728544602
tp125
tp126
Rp127
sg1
(g2
g3
(S'1.00000000'
p128
S'0.50000000'
p129
S'1.000'
p130
S'10'
p131
g8
S'75'
p132
tp133
tp134
Rp135
g1
(g13
g3
(g14
(g18
S'`t\xe1\xdd\xe6\x9c\xc8?'
p136
tp137
Rp138
g14
(g18
S'[\xfe3X\x82\x0fp?'
p139
tp140
Rp141
g14
(g18
S'\xa8\x10\x01\xad\xf5C\x8b?'
p142
tp143
Rp144
g14
(g18
S':\xd9\xfd`\xa65q?'
p145
tp146
Rp147
F0.22447063553910346
F0.17610032332553058
tp148
tp149
Rp150
sg1
(g2
g3
(S'1.00000000'
p151
S'0.00781250'
p152
S'1.000'
p153
S'10'
p154
g8
S'75'
p155
tp156
tp157
Rp158
g1
(g13
g3
(g14
(g18
S'\xeb\x91E\x97\x13V\xd1?'
p159
tp160
Rp161
g14
(g18
S'\x8bg\xa8>\xba\x95\xae?'
p162
tp163
Rp164
g14
(g18
S'{\xef\xaf\xf9\x9b\x18\xb3?'
p165
tp166
Rp167
g14
(g18
S'\xa8\xbb\x04E\xe3\xc5\xac?'
p168
tp169
Rp170
F0.36005626512995265
F0.18196598292545482
tp171
tp172
Rp173
sg1
(g2
g3
(S'1.00000000'
p174
S'8.00000000'
p175
S'1.000'
p176
S'10'
p177
g8
S'75'
p178
tp179
tp180
Rp181
g1
(g13
g3
(g14
(g18
S'E\x95\xe7J\xa6h\xcd?'
p182
tp183
Rp184
g14
(g18
S'\x05\x92\xdfW$\x04}?'
p185
tp186
Rp187
g14
(g18
S'\xa3m(&\\\xb1\x8b?'
p188
tp189
Rp190
g14
(g18
S'\xe2\x04\xd8\x1b\xa0%\\?'
p191
tp192
Rp193
F0.24083990520511858
F0.19784430472563724
tp194
tp195
Rp196
sg1
(g2
g3
(S'1.00000000'
p197
S'128.00000000'
p198
S'1.000'
p199
S'10'
p200
g8
S'75'
p201
tp202
tp203
Rp204
g1
(g13
g3
(g14
(g18
S'\x8d\xf9\xceC\xd7\xd2\xce?'
p205
tp206
Rp207
g14
(g18
S'\xc6&\xd7\x92\x80\x9b\x81?'
p208
tp209
Rp210
g14
(g18
S'\x00\x00\x00\x00\x00\x00\x00\x00'
p211
tp212
Rp213
g14
(g18
S'\x00\x00\x00\x00\x00\x00\x00\x00'
p214
tp215
Rp216
F0.24080935297929465
F0.24080935297929465
tp217
tp218
Rp219
sg1
(g2
g3
(S'1.00000000'
p220
S'0.03125000'
p221
S'1.000'
p222
S'10'
p223
g8
S'75'
p224
tp225
tp226
Rp227
g1
(g13
g3
(g14
(g18
S'\xbc\x07\xfeK\xca{\xd1?'
p228
tp229
Rp230
g14
(g18
S'X\xf5\x91Eu+\xab?'
p231
tp232
Rp233
g14
(g18
S'\xb9\xf0\xd5\xa2\x9f\x07\xb3?'
p234
tp235
Rp236
g14
(g18
S'x\xae v\x8b\xd1\xa9?'
p237
tp238
Rp239
F0.35671044750335507
F0.18823152778479765
tp240
tp241
Rp242
sg1
(g2
g3
(S'1.00000000'
p243
S'0.25000000'
p244
S'1.000'
p245
S'10'
p246
g8
S'75'
p247
tp248
tp249
Rp250
g1
(g13
g3
(g14
(g18
S'\xa66\x03J\x85\x8f\xc8?'
p251
tp252
Rp253
g14
(g18
S'\x9dr\xa6\x13\x0e\xc8r?'
p254
tp255
Rp256
g14
(g18
S'.\xdb\xc7\x9a\xa1\xdf\x8a?'
p257
tp258
Rp259
g14
(g18
S'\x12\x81\x97.\x98\x92p?'
p260
tp261
Rp262
F0.21522626752132434
F0.17241514967950336
tp263
tp264
Rp265
sg1
(g2
g3
(S'1.00000000'
p266
S'1.00000000'
p267
S'1.000'
p268
S'10'
p269
g8
S'75'
p270
tp271
tp272
Rp273
g1
(g13
g3
(g14
(g18
S'\x88\xf7\xbe<-\xa8\xc8?'
p274
tp275
Rp276
g14
(g18
S'\x04\x8f\xa7I\x0c_v?'
p277
tp278
Rp279
g14
(g18
S'cLJ\x02\xa8\xff\x89?'
p280
tp281
Rp282
g14
(g18
S'\xc8\xeb\xc4\n@\xa3f?'
p283
tp284
Rp285
F0.21931143015346272
F0.17742081127098014
tp286
tp287
Rp288
sg1
(g2
g3
(S'1.00000000'
p289
S'4.00000000'
p290
S'1.000'
p291
S'10'
p292
g8
S'75'
p293
tp294
tp295
Rp296
g1
(g13
g3
(g14
(g18
S'\xce~\x840\xb18\xca?'
p297
tp298
Rp299
g14
(g18
S'E\xab\xcc\xa3\xc7K|?'
p300
tp301
Rp302
g14
(g18
S'\xe5\x12\xc1\x1ay\x9d\x92?'
p303
tp304
Rp305
g14
(g18
S'\x91\xc1\xec\xeb\x88\xa0b?'
p306
tp307
Rp308
F0.23740018663260914
F0.17404211228282457
tp309
tp310
Rp311
sg1
(g2
g3
(S'1.00000000'
p312
S'0.00390625'
p313
S'1.000'
p314
S'10'
p315
g8
S'75'
p316
tp317
tp318
Rp319
g1
(g13
g3
(g14
(g18
S'\x8a\xb8zJ\x15\xd0\xd8?'
p320
tp321
Rp322
g14
(g18
S'\xaeMK\x02\x96-\xb2?'
p323
tp324
Rp325
g14
(g18
S'\x92\xb1\xd2J\xfdz\xc7?'
p326
tp327
Rp328
g14
(g18
S') W ;Z\xb2?'
p329
tp330
Rp331
F0.5772188554004642
F0.18734109070691818
tp332
tp333
Rp334
sg1
(g2
g3
(S'1.00000000'
p335
S'16.00000000'
p336
S'1.000'
p337
S'10'
p338
g8
S'75'
p339
tp340
tp341
Rp342
g1
(g13
g3
(g14
(g18
S'])\xb01\x8fu\xce?'
p343
tp344
Rp345
g14
(g18
S'ju\xbc\x9fM\xeex?'
p346
tp347
Rp348
g14
(g18
S'0\x86\xfdY0\xd5s?'
p349
tp350
Rp351
g14
(g18
S'\x8eu6_\x95UQ?'
p352
tp353
Rp354
F0.2408096264405752
F0.22437880912704372
tp355
tp356
Rp357
sg1
(g2
g3
(S'1.00000000'
p358
S'0.01562500'
p359
S'1.000'
p360
S'10'
p361
g8
S'75'
p362
tp363
tp364
Rp365
g1
(g13
g3
(g14
(g18
S'\x00\xf8\x83:)\xac\xd1?'
p366
tp367
Rp368
g14
(g18
S'\xf1z\t\xb8;t\xb0?'
p369
tp370
Rp371
g14
(g18
S'O\xacw\x96\xd6\x1e\xb5?'
p372
tp373
Rp374
g14
(g18
S'\xe8W\x0ez;q\xae?'
p375
tp376
Rp377
F0.3679899992380803
F0.17990834709440787
tp378
tp379
Rp380
s.