(dp0
ccopy_reg
_reconstructor
p1
(cscripts.archipelago_tuples
Parameters
p2
c__builtin__
tuple
p3
(S'1.00000000'
p4
S'1.00000000'
p5
S'1.000'
p6
S'20'
p7
S'5'
p8
S'50'
p9
tp10
tp11
Rp12
g1
(cscripts.archipelago_tuples
Metrics
p13
g3
(cnumpy.core.multiarray
scalar
p14
(cnumpy
dtype
p15
(S'f8'
p16
I0
I1
tp17
Rp18
(I3
S'<'
p19
NNNI-1
I-1
I0
tp20
bS'\xfe\x89L\x02Z\x17\xc7?'
p21
tp22
Rp23
g14
(g18
S'\x13\xf6\x83\xf7\xd0\xf6\x83?'
p24
tp25
Rp26
F0.0
F0.18040013420348083
tp27
tp28
Rp29
sg1
(g2
g3
(S'1.00000000'
p30
S'4.00000000'
p31
S'1.000'
p32
S'20'
p33
g8
S'50'
p34
tp35
tp36
Rp37
g1
(g13
g3
(g14
(g18
S'\x06@f\xf1\x05\xaf\xcd?'
p38
tp39
Rp40
g14
(g18
S'\x1e$\xc0\xcc\xde\xe2\x89?'
p41
tp42
Rp43
F0.0
F0.23190378462868483
tp44
tp45
Rp46
sg1
(g2
g3
(S'1.00000000'
p47
S'0.00390625'
p48
S'1.000'
p49
S'20'
p50
g8
S'50'
p51
tp52
tp53
Rp54
g1
(g13
g3
(g14
(g18
S'\xe7h\x8a\xa5L<\xe0?'
p55
tp56
Rp57
g14
(g18
S'\xa4/J\xf9\x95\xf1\xbd?'
p58
tp59
Rp60
F0.0
F0.5073607667175367
tp61
tp62
Rp63
sg1
(g2
g3
(S'1.00000000'
p64
S'8.00000000'
p65
S'1.000'
p66
S'20'
p67
g8
S'50'
p68
tp69
tp70
Rp71
g1
(g13
g3
(g14
(g18
S'\xb8Z\xf5Q\xcd\xcb\xce?'
p72
tp73
Rp74
g14
(g18
S'\x92d\xa8\x9f+L\x81?'
p75
tp76
Rp77
F0.0
F0.24059454442859418
tp78
tp79
Rp80
sg1
(g2
g3
(S'1.00000000'
p81
S'16.00000000'
p82
S'1.000'
p83
S'20'
p84
g8
S'50'
p85
tp86
tp87
Rp88
g1
(g13
g3
(g14
(g18
S'X\xbe\xcf)\xd9\xd2\xce?'
p89
tp90
Rp91
g14
(g18
S'\xf7zl6\xdd\xde\x80?'
p92
tp93
Rp94
F0.0
F0.24080957929207858
tp95
tp96
Rp97
sg1
(g2
g3
(S'1.00000000'
p98
S'0.00781250'
p99
S'1.000'
p100
S'20'
p101
g8
S'50'
p102
tp103
tp104
Rp105
g1
(g13
g3
(g14
(g18
S'd\xd6u\xc7d}\xe0?'
p106
tp107
Rp108
g14
(g18
S'\x03\x1a7\xf8p\x07\xc1?'
p109
tp110
Rp111
F0.0
F0.5153068443020854
tp112
tp113
Rp114
sg1
(g2
g3
(S'1.00000000'
p115
S'0.03125000'
p116
S'1.000'
p117
S'20'
p118
g8
S'50'
p119
tp120
tp121
Rp122
g1
(g13
g3
(g14
(g18
S'\x19:\x9cB\xd4\x05\xd8?'
p123
tp124
Rp125
g14
(g18
S'AC\x90\x97\xce\xc5\xb5?'
p126
tp127
Rp128
F0.0
F0.37535578255565977
tp129
tp130
Rp131
sg1
(g2
g3
(S'1.00000000'
p132
S'0.12500000'
p133
S'1.000'
p134
S'20'
p135
g8
S'50'
p136
tp137
tp138
Rp139
g1
(g13
g3
(g14
(g18
S'\xf0\xc9\xdd\x1ba3\xca?'
p140
tp141
Rp142
g14
(g18
S'\xb4\xff \x91\xfb\xf0\x91?'
p143
tp144
Rp145
F0.0
F0.2046929727617477
tp146
tp147
Rp148
sg1
(g2
g3
(S'1.00000000'
p149
S'32.00000000'
p150
S'1.000'
p151
S'20'
p152
g8
S'50'
p153
tp154
tp155
Rp156
g1
(g13
g3
(g14
(g18
S'Sb\xd0\xbe\xda\xd2\xce?'
p157
tp158
Rp159
g14
(g18
S'\xdb\xd1E\x87\x86<}?'
p160
tp161
Rp162
F0.0
F0.2408097678860651
tp163
tp164
Rp165
sg1
(g2
g3
(S'1.00000000'
p166
S'64.00000000'
p167
S'1.000'
p168
S'20'
p169
g8
S'50'
p170
tp171
tp172
Rp173
g1
(g13
g3
(g14
(g18
S'&d\x0fK\xd8\xd2\xce?'
p174
tp175
Rp176
g14
(g18
S'\x8a\xd88\xf6\x15-|?'
p177
tp178
Rp179
F0.0
F0.24080947556538596
tp180
tp181
Rp182
sg1
(g2
g3
(S'1.00000000'
p183
S'0.01562500'
p184
S'1.000'
p185
S'20'
p186
g8
S'50'
p187
tp188
tp189
Rp190
g1
(g13
g3
(g14
(g18
S'\x9bz\xc7\x9e\xe2;\xd9?'
p191
tp192
Rp193
g14
(g18
S'\xc8\x98\xc7\x88\x9f\x16\xbb?'
p194
tp195
Rp196
F0.0
F0.39428010469229385
tp197
tp198
Rp199
sg1
(g2
g3
(S'1.00000000'
p200
S'0.25000000'
p201
S'1.000'
p202
S'20'
p203
g8
S'50'
p204
tp205
tp206
Rp207
g1
(g13
g3
(g14
(g18
S'^\xa6#\xd1\x9e\xdf\xc7?'
p208
tp209
Rp210
g14
(g18
S'\xc9\x07w\x1b\x91o\x8e?'
p211
tp212
Rp213
F0.0
F0.1865118523776798
tp214
tp215
Rp216
sg1
(g2
g3
(S'1.00000000'
p217
S'256.00000000'
p218
S'1.000'
p219
S'20'
p220
g8
S'50'
p221
tp222
tp223
Rp224
g1
(g13
g3
(g14
(g18
S'\xc2]\x0e\xc3\xd5\xd2\xce?'
p225
tp226
Rp227
g14
(g18
S'*\xa1j\x8d\x81\\\x80?'
p228
tp229
Rp230
F0.0
F0.24080917381500738
tp231
tp232
Rp233
sg1
(g2
g3
(S'1.00000000'
p234
S'0.50000000'
p235
S'1.000'
p236
S'20'
p237
g8
S'50'
p238
tp239
tp240
Rp241
g1
(g13
g3
(g14
(g18
S'\x86w4@MN\xc8?'
p242
tp243
Rp244
g14
(g18
S':\x7fA\xf4\x84\x9c\x82?'
p245
tp246
Rp247
F0.0
F0.1898895801068045
tp248
tp249
Rp250
sg1
(g2
g3
(S'1.00000000'
p251
S'128.00000000'
p252
S'1.000'
p253
S'20'
p254
g8
S'50'
p255
tp256
tp257
Rp258
g1
(g13
g3
(g14
(g18
S'\xc3\x86N(\xd6\xd2\xce?'
p259
tp260
Rp261
g14
(g18
S'f\xb3\xb0\xbd(\x96{?'
p262
tp263
Rp264
F0.0
F0.24080922096350407
tp265
tp266
Rp267
sg1
(g2
g3
(S'1.00000000'
p268
S'0.06250000'
p269
S'1.000'
p270
S'20'
p271
g8
S'50'
p272
tp273
tp274
Rp275
g1
(g13
g3
(g14
(g18
S'\n\xa45\x98y9\xd2?'
p276
tp277
Rp278
g14
(g18
S'\xd2\xe7:\xa6\xe7\x1b\xa2?'
p279
tp280
Rp281
F0.0
F0.28475799431049664
tp282
tp283
Rp284
sg1
(g2
g3
(S'1.00000000'
p285
S'2.00000000'
p286
S'1.000'
p287
S'20'
p288
g8
S'50'
p289
tp290
tp291
Rp292
g1
(g13
g3
(g14
(g18
S'B\x92\xd1h\xd2\xdc\xc9?'
p293
tp294
Rp295
g14
(g18
S'n5\x93\xa1\x14\x19\x81?'
p296
tp297
Rp298
F0.0
F0.20205144994828755
tp299
tp300
Rp301
s.