(dp0
ccopy_reg
_reconstructor
p1
(cscripts.archipelago_tuples
Parameters
p2
c__builtin__
tuple
p3
(S'10000.00000000'
p4
S'0.00195313'
p5
S'10000.000'
p6
S'1'
p7
g7
S'3312'
p8
tp9
tp10
Rp11
g1
(cscripts.archipelago_tuples
Metrics
p12
g3
(cnumpy.core.multiarray
scalar
p13
(cnumpy
dtype
p14
(S'f8'
p15
I0
I1
tp16
Rp17
(I3
S'<'
p18
NNNI-1
I-1
I0
tp19
bS'\xa5\xf2a\xdc\xafK\xba?'
p20
tp21
Rp22
g13
(g17
S'Pm{\x91G\x03\x8b?'
p23
tp24
Rp25
F0.0
F0.10271739130434783
tp26
tp27
Rp28
sg1
(g2
g3
(S'10000.00000000'
p29
S'0.00390625'
p30
S'10000.000'
p31
g7
g7
S'3312'
p32
tp33
tp34
Rp35
g1
(g12
g3
(g13
(g17
S'\xb6\x1a<G\xa0h\xbb?'
p36
tp37
Rp38
g13
(g17
S'\x1f\x8dK\xc81\xcd\x93?'
p39
tp40
Rp41
F0.0
F0.10706521739130434
tp42
tp43
Rp44
sg1
(g2
g3
(S'10000.00000000'
p45
S'0.01562500'
p46
S'10000.000'
p47
g7
g7
S'3312'
p48
tp49
tp50
Rp51
g1
(g12
g3
(g13
(g17
S'\xb8\x1a<G\xa0h\xbb?'
p52
tp53
Rp54
g13
(g17
S'\xc8\xa2\xd2hz\xe1\x92?'
p55
tp56
Rp57
F0.0
F0.10706521739130437
tp58
tp59
Rp60
sg1
(g2
g3
(S'10000.00000000'
p61
S'0.00781250'
p62
S'10000.000'
p63
g7
g7
S'3312'
p64
tp65
tp66
Rp67
g1
(g12
g3
(g13
(g17
S'-d!\x0bY\xc8\xba?'
p68
tp69
Rp70
g13
(g17
S'9\\T0\x94\xcb\x94?'
p71
tp72
Rp73
F0.0
F0.10461956521739131
tp74
tp75
Rp76
s.