(dp0
ccopy_reg
_reconstructor
p1
(cscripts.archipelago_tuples
Parameters
p2
c__builtin__
tuple
p3
(S'1.00000000'
p4
S'0.12500000'
p5
S'1.000'
p6
S'10'
p7
S'10'
p8
tp9
tp10
Rp11
g1
(cscripts.archipelago_tuples
Metrics
p12
g3
(F0.39717391304347827
F0.050064211189600374
F0.45190217391304344
F0.2986413043478261
tp13
tp14
Rp15
s.