(dp0
ccopy_reg
_reconstructor
p1
(cscripts.archipelago_tuples
Parameters
p2
c__builtin__
tuple
p3
(S'1.00000000'
p4
S'4.00000000'
p5
S'0.500'
p6
S'100'
p7
S'10'
p8
tp9
tp10
Rp11
g1
(cscripts.archipelago_tuples
Metrics
p12
g3
(F0.13552639751552792
F0.02223273304575298
F0.23307453416149065
F0.10108695652173912
tp13
tp14
Rp15
sg1
(g2
g3
(S'1.00000000'
p16
S'16.00000000'
p17
S'0.500'
p18
S'100'
p19
S'10'
p20
tp21
tp22
Rp23
g1
(g12
g3
(F0.8725667701863353
F0.019125170666537204
F0.9021739130434782
F0.7757763975155278
tp24
tp25
Rp26
sg1
(g2
g3
(S'1.00000000'
p27
S'1.00000000'
p28
S'0.500'
p29
S'100'
p30
S'10'
p31
tp32
tp33
Rp34
g1
(g12
g3
(F0.157194099378882
F0.030622894500887544
F0.2669254658385093
F0.10745341614906834
tp35
tp36
Rp37
sg1
(g2
g3
(S'1.00000000'
p38
S'2.00000000'
p39
S'0.500'
p40
S'100'
p41
S'10'
p42
tp43
tp44
Rp45
g1
(g12
g3
(F0.14119254658385091
F0.02378399784264333
F0.23338509316770187
F0.10372670807453417
tp46
tp47
Rp48
sg1
(g2
g3
(S'1.00000000'
p49
S'0.50000000'
p50
S'0.500'
p51
S'100'
p52
S'10'
p53
tp54
tp55
Rp56
g1
(g12
g3
(F0.18240527950310553
F0.04558578429161065
F0.34875776397515523
F0.11894409937888198
tp57
tp58
Rp59
sg1
(g2
g3
(S'1.00000000'
p60
S'0.06250000'
p61
S'0.500'
p62
S'100'
p63
S'10'
p64
tp65
tp66
Rp67
g1
(g12
g3
(F0.29853881987577646
F0.08059645333697465
F0.49394409937888195
F0.13509316770186336
tp68
tp69
Rp70
sg1
(g2
g3
(S'1.00000000'
p71
S'0.25000000'
p72
S'0.500'
p73
S'100'
p74
S'10'
p75
tp76
tp77
Rp78
g1
(g12
g3
(F0.217388198757764
F0.05679950191566126
F0.4204968944099378
F0.12841614906832297
tp79
tp80
Rp81
sg1
(g2
g3
(S'1.00000000'
p82
S'8.00000000'
p83
S'0.500'
p84
S'100'
p85
S'10'
p86
tp87
tp88
Rp89
g1
(g12
g3
(F0.519526397515528
F0.1492518684296763
F0.7933229813664596
F0.16319875776397513
tp90
tp91
Rp92
sg1
(g2
g3
(S'1.00000000'
p93
S'0.12500000'
p94
S'0.500'
p95
S'100'
p96
S'10'
p97
tp98
tp99
Rp100
g1
(g12
g3
(F0.25825310559006215
F0.07005792234655187
F0.4700310559006211
F0.1358695652173913
tp101
tp102
Rp103
s.