(dp0
ccopy_reg
_reconstructor
p1
(cscripts.archipelago_tuples
Parameters
p2
c__builtin__
tuple
p3
(S'1.00000000'
p4
S'2.00000000'
p5
S'1.000'
p6
S'50'
p7
S'2'
p8
tp9
tp10
Rp11
g1
(cscripts.archipelago_tuples
Metrics
p12
g3
(F0.36702717391304346
F0.009250465041183497
F0.3904891304347826
F0.34728260869565214
tp13
tp14
Rp15
sg1
(g2
g3
(S'1.00000000'
p16
S'0.03125000'
p17
S'1.000'
p18
S'50'
p19
g8
tp20
tp21
Rp22
g1
(g12
g3
(F0.39418478260869566
F0.026546375111827357
F0.4453804347826086
F0.3489130434782609
tp23
tp24
Rp25
sg1
(g2
g3
(S'1.00000000'
p26
S'1.00000000'
p27
S'1.000'
p28
S'50'
p29
g8
tp30
tp31
Rp32
g1
(g12
g3
(F0.3570217391304348
F0.02258032729534712
F0.38722826086956524
F0.3122282608695652
tp33
tp34
Rp35
sg1
(g2
g3
(S'1.00000000'
p36
S'4.00000000'
p37
S'1.000'
p38
S'50'
p39
g8
tp40
tp41
Rp42
g1
(g12
g3
(F0.3951141304347826
F0.0019308518198016683
F0.3964673913043479
F0.3904891304347826
tp43
tp44
Rp45
sg1
(g2
g3
(S'1.00000000'
p46
S'16.00000000'
p47
S'1.000'
p48
S'50'
p49
g8
tp50
tp51
Rp52
g1
(g12
g3
(F0.3959673913043479
F0.0007534535332842479
F0.39673913043478265
F0.39483695652173917
tp53
tp54
Rp55
sg1
(g2
g3
(S'1.00000000'
p56
S'8.00000000'
p57
S'1.000'
p58
S'50'
p59
g8
tp60
tp61
Rp62
g1
(g12
g3
(F0.39638043478260876
F0.00020652173913043373
F0.3964673913043478
F0.3956521739130435
tp63
tp64
Rp65
sg1
(g2
g3
(S'1.00000000'
p66
S'0.25000000'
p67
S'1.000'
p68
S'50'
p69
g8
tp70
tp71
Rp72
g1
(g12
g3
(F0.261625
F0.030835185849487228
F0.31385869565217395
F0.22336956521739132
tp73
tp74
Rp75
sg1
(g2
g3
(S'1.00000000'
p76
S'0.12500000'
p77
S'1.000'
p78
S'50'
p79
g8
tp80
tp81
Rp82
g1
(g12
g3
(F0.3457173913043478
F0.020015693960062676
F0.3845108695652174
F0.31820652173913044
tp83
tp84
Rp85
sg1
(g2
g3
(S'1.00000000'
p86
S'0.06250000'
p87
S'1.000'
p88
S'50'
p89
g8
tp90
tp91
Rp92
g1
(g12
g3
(F0.3120108695652174
F0.018716201231655526
F0.3508152173913044
F0.2796195652173913
tp93
tp94
Rp95
sg1
(g2
g3
(S'1.00000000'
p96
S'0.50000000'
p97
S'1.000'
p98
S'50'
p99
g8
tp100
tp101
Rp102
g1
(g12
g3
(F0.3780978260869565
F0.020239039430804986
F0.4179347826086957
F0.3505434782608695
tp103
tp104
Rp105
s.