(dp0
ccopy_reg
_reconstructor
p1
(cscripts.archipelago_tuples
Parameters
p2
c__builtin__
tuple
p3
(S'1.00000000'
p4
S'0.06250000'
p5
S'1.000'
p6
S'20'
p7
S'20'
p8
S'30'
p9
tp10
tp11
Rp12
g1
(cscripts.archipelago_tuples
Metrics
p13
g3
(cnumpy.core.multiarray
scalar
p14
(cnumpy
dtype
p15
(S'f8'
p16
I0
I1
tp17
Rp18
(I3
S'<'
p19
NNNI-1
I-1
I0
tp20
bS'\xcb\xc8\x83(\x1b\xfd\xd1?'
p21
tp22
Rp23
g14
(g18
S'Q\x0f\xda\xc5\xe6\x8f\xb5?'
p24
tp25
Rp26
F0.03466837666320604
F0.36413043478260865
tp27
tp28
Rp29
sg1
(g2
g3
(S'1.00000000'
p30
S'0.06250000'
p31
S'1.000'
p32
S'20'
p33
S'15'
p34
S'30'
p35
tp36
tp37
Rp38
g1
(g13
g3
(g14
(g18
S'\xe6E\xdd1p|\xd9?'
p39
tp40
Rp41
g14
(g18
S'V\x01A\xfa\x1a\xb9\xc3?'
p42
tp43
Rp44
F0.03945423039538321
F0.517663043478261
tp45
tp46
Rp47
sg1
(g2
g3
(S'1.00000000'
p48
S'0.06250000'
p49
S'1.000'
p50
S'20'
p51
S'3'
p52
S'30'
p53
tp54
tp55
Rp56
g1
(g13
g3
(g14
(g18
S'P2\xb1\x0eaZ\xcf?'
p57
tp58
Rp59
g14
(g18
S'\xd6\x17%\xdf\xef\x16\xa6?'
p60
tp61
Rp62
F0.027902611884627355
F0.3005434782608696
tp63
tp64
Rp65
sg1
(g2
g3
(S'1.00000000'
p66
S'0.06250000'
p67
S'1.000'
p68
S'20'
p69
S'12'
p70
S'30'
p71
tp72
tp73
Rp74
g1
(g13
g3
(g14
(g18
S'.\xea\x8e\x81\xe3\xbf\xcb?'
p75
tp76
Rp77
g14
(g18
S'\xcc!\xe8]*\x1d\x92?'
p78
tp79
Rp80
F0.03248144487691122
F0.28070652173913047
tp81
tp82
Rp83
sg1
(g2
g3
(S'1.00000000'
p84
S'0.06250000'
p85
S'1.000'
p86
S'20'
p87
S'9'
p88
S'30'
p89
tp90
tp91
Rp92
g1
(g13
g3
(g14
(g18
S'\x9a\x17u\xc7\xc0\xf1\xd1?'
p93
tp94
Rp95
g14
(g18
S'\xec\xb8\x1d\x00\x04D\xb8?'
p96
tp97
Rp98
F0.04922432339701625
F0.41195652173913044
tp99
tp100
Rp101
sg1
(g2
g3
(S'1.00000000'
p102
S'0.06250000'
p103
S'1.000'
p104
S'20'
p105
S'17'
p106
S'30'
p107
tp108
tp109
Rp110
g1
(g13
g3
(g14
(g18
S'e\xe4A\x94\x8d>\xd3?'
p111
tp112
Rp113
g14
(g18
S'xE\xf71y\xee\xb9?'
p114
tp115
Rp116
F0.03500343293448451
F0.40842391304347825
tp117
tp118
Rp119
sg1
(g2
g3
(S'1.00000000'
p120
S'0.06250000'
p121
S'1.000'
p122
S'20'
p123
S'16'
p124
S'30'
p125
tp126
tp127
Rp128
g1
(g13
g3
(g14
(g18
S'%\x0f\xa2l\xf4\xe5\xd2?'
p129
tp130
Rp131
g14
(g18
S'\x17\xe7m\x9a\x914\xc2?'
p132
tp133
Rp134
F0.02604027899722449
F0.3508152173913044
tp135
tp136
Rp137
sg1
(g2
g3
(S'1.00000000'
p138
S'0.06250000'
p139
S'1.000'
p140
S'20'
p141
S'4'
p142
S'30'
p143
tp144
tp145
Rp146
g1
(g13
g3
(g14
(g18
S'\x1f\xc6\xfd\xba\xa4\xf2\xd2?'
p147
tp148
Rp149
g14
(g18
S'\x95w\x1b\xd6\x1c\xef\xb4?'
p150
tp151
Rp152
F0.03908846454172939
F0.37581521739130436
tp153
tp154
Rp155
sg1
(g2
g3
(S'1.00000000'
p156
S'0.06250000'
p157
S'1.000'
p158
S'20'
p159
S'1'
p160
S'30'
p161
tp162
tp163
Rp164
g1
(g13
g3
(g14
(g18
S'\x8d\xbac\xe0\xf8\xef\xce?'
p165
tp166
Rp167
g14
(g18
S'\tP\xf6s?[\xb2?'
p168
tp169
Rp170
F0.015448255658534384
F0.26983695652173917
tp171
tp172
Rp173
sg1
(g2
g3
(S'1.00000000'
p174
S'0.06250000'
p175
S'1.000'
p176
S'20'
p177
S'18'
p178
S'30'
p179
tp180
tp181
Rp182
g1
(g13
g3
(g14
(g18
S'\x93L\xacC\x98\xd6\xd7?'
p183
tp184
Rp185
g14
(g18
S'\xc8?\x81\x12=\xfb\xc4?'
p186
tp187
Rp188
F0.031390309669144474
F0.4345108695652174
tp189
tp190
Rp191
sg1
(g2
g3
(S'1.00000000'
p192
S'0.06250000'
p193
S'1.000'
p194
S'20'
p195
S'5'
p196
S'30'
p197
tp198
tp199
Rp200
g1
(g13
g3
(g14
(g18
S'\x1f\xc6\xfd\xba\xa4r\xd4?'
p201
tp202
Rp203
g14
(g18
S'\xd8\xa0\x07\xca\xb8\xcd\xbc?'
p204
tp205
Rp206
F0.0416866229194216
F0.3796195652173913
tp207
tp208
Rp209
sg1
(g2
g3
(S'1.00000000'
p210
S'0.06250000'
p211
S'1.000'
p212
S'20'
p213
S'13'
p214
S'30'
p215
tp216
tp217
Rp218
g1
(g13
g3
(g14
(g18
S'\xfbuI\xe5\xc38\xd4?'
p219
tp220
Rp221
g14
(g18
S'U\xe1\xaf\xa6f\xc2\xc0?'
p222
tp223
Rp224
F0.03963600421540619
F0.39021739130434774
tp225
tp226
Rp227
sg1
(g2
g3
(S'1.00000000'
p228
S'0.06250000'
p229
S'1.000'
p230
S'20'
p231
S'2'
p232
S'30'
p233
tp234
tp235
Rp236
g1
(g13
g3
(g14
(g18
S'\xe2\xbb&\x1745\xd1?'
p237
tp238
Rp239
g14
(g18
S'kb\xca\xe7\x16}\xb6?'
p240
tp241
Rp242
F0.031956525014818826
F0.3222826086956522
tp243
tp244
Rp245
sg1
(g2
g3
(S'1.00000000'
p246
S'0.06250000'
p247
S'1.000'
p248
S'20'
p249
S'19'
p250
S'30'
p251
tp252
tp253
Rp254
g1
(g13
g3
(g14
(g18
S'\xa7x\xcfR:C\xd5?'
p255
tp256
Rp257
g14
(g18
S'\xeff\xec*\xe5\xd1\xc2?'
p258
tp259
Rp260
F0.06275828961145885
F0.548913043478261
tp261
tp262
Rp263
sg1
(g2
g3
(S'1.00000000'
p264
S'0.06250000'
p265
S'1.000'
p266
S'20'
p267
S'10'
p268
S'30'
p269
tp270
tp271
Rp272
g1
(g13
g3
(g14
(g18
S'8\xbd\xe9Mo\xfa\xd5?'
p273
tp274
Rp275
g14
(g18
S'\x1f,x\x91\x13;\xc4?'
p276
tp277
Rp278
F0.029665894602917586
F0.40815217391304354
tp279
tp280
Rp281
sg1
(g2
g3
(S'1.00000000'
p282
S'0.06250000'
p283
S'1.000'
p284
S'20'
p285
S'7'
p286
S'30'
p287
tp288
tp289
Rp290
g1
(g13
g3
(g14
(g18
S'\x10e\xa3/+\xa1\xd0?'
p291
tp292
Rp293
g14
(g18
S'`\x93R\x9c\n\x98\xb5?'
p294
tp295
Rp296
F0.026402269293282894
F0.32608695652173914
tp297
tp298
Rp299
sg1
(g2
g3
(S'1.00000000'
p300
S'0.06250000'
p301
S'1.000'
p302
S'20'
p303
S'6'
p304
S'30'
p305
tp306
tp307
Rp308
g1
(g13
g3
(g14
(g18
S'2\xf2 \xcaF\xdf\xd0?'
p309
tp310
Rp311
g14
(g18
S'\xbc0\xa4i>[\xb8?'
p312
tp313
Rp314
F0.05501679635880653
F0.4453804347826087
tp315
tp316
Rp317
sg1
(g2
g3
(S'1.00000000'
p318
S'0.06250000'
p319
S'1.000'
p320
S'20'
p321
S'14'
p322
S'30'
p323
tp324
tp325
Rp326
g1
(g13
g3
(g14
(g18
S'&\x95\x0f\xe3~]\xd2?'
p327
tp328
Rp329
g14
(g18
S'\xc5\xd6\xa7\xa3S\x02\xbf?'
p330
tp331
Rp332
F0.038548908479711555
F0.37364130434782605
tp333
tp334
Rp335
sg1
(g2
g3
(S'1.00000000'
p336
S'0.06250000'
p337
S'1.000'
p338
S'20'
p339
S'11'
p340
S'30'
p341
tp342
tp343
Rp344
g1
(g13
g3
(g14
(g18
S'\xe2~]R\xf9\xb0\xd5?'
p345
tp346
Rp347
g14
(g18
S"\xe4N'\tN\xfc\xc1?"
p348
tp349
Rp350
F0.036279761751411746
F0.4103260869565218
tp351
tp352
Rp353
sg1
(g2
g3
(S'1.00000000'
p354
S'0.06250000'
p355
S'1.000'
p356
S'20'
p357
S'8'
p358
S'30'
p359
tp360
tp361
Rp362
g1
(g13
g3
(g14
(g18
S'\xdd\xafK*\x1f\xc6\xd1?'
p363
tp364
Rp365
g14
(g18
S'\xfb\x05vm\xf7>\xbf?'
p366
tp367
Rp368
F0.024861632547839844
F0.3317934782608696
tp369
tp370
Rp371
s.