(dp0
ccopy_reg
_reconstructor
p1
(cscripts.archipelago_tuples
Parameters
p2
c__builtin__
tuple
p3
(S'1.00000000'
p4
S'0.12500000'
p5
S'1.000'
p6
S'10'
p7
S'10'
p8
tp9
tp10
Rp11
g1
(cscripts.archipelago_tuples
Metrics
p12
g3
(F0.3503804347826087
F0.09307282214259864
F0.44891304347826083
F0.19510869565217387
tp13
tp14
Rp15
sg1
(g2
g3
(S'1.00000000'
p16
S'0.12500000'
p17
S'1.000'
p18
S'10'
p19
S'8'
p20
tp21
tp22
Rp23
g1
(g12
g3
(F0.3486684782608696
F0.09996237893808099
F0.4834239130434782
F0.20597826086956522
tp24
tp25
Rp26
sg1
(g2
g3
(S'1.00000000'
p27
S'0.12500000'
p28
S'1.000'
p29
S'10'
p30
S'2'
p31
tp32
tp33
Rp34
g1
(g12
g3
(F0.40641304347826085
F0.012344537407199044
F0.42391304347826086
F0.3872282608695652
tp35
tp36
Rp37
sg1
(g2
g3
(S'1.00000000'
p38
S'0.12500000'
p39
S'1.000'
p40
S'10'
p41
S'4'
p42
tp43
tp44
Rp45
g1
(g12
g3
(F0.37725543478260865
F0.07907933654746706
F0.4665760869565217
F0.23668478260869566
tp46
tp47
Rp48
sg1
(g2
g3
(S'1.00000000'
p49
S'0.12500000'
p50
S'1.000'
p51
S'10'
p52
S'6'
p53
tp54
tp55
Rp56
g1
(g12
g3
(F0.38040760869565216
F0.06332822677420732
F0.45489130434782615
F0.2663043478260869
tp57
tp58
Rp59
s.