(dp0
ccopy_reg
_reconstructor
p1
(cscripts.archipelago_tuples
Parameters
p2
c__builtin__
tuple
p3
(S'1.00000000'
p4
S'1.00000000'
p5
S'1.000'
p6
S'1'
p7
g7
S'3000'
p8
tp9
tp10
Rp11
g1
(cscripts.archipelago_tuples
Metrics
p12
g3
(cnumpy.core.multiarray
scalar
p13
(cnumpy
dtype
p14
(S'f8'
p15
I0
I1
tp16
Rp17
(I3
S'<'
p18
NNNI-1
I-1
I0
tp19
bS'\xb0\x9e\xf9\xe5*\xe8\xcb?'
p20
tp21
Rp22
g13
(g17
S'<\xe6|\xa9\xabm\x9b?'
p23
tp24
Rp25
g13
(g17
S'\x00\x00\x00\x00\x00\x00\x00\x00'
p26
tp27
Rp28
g13
(g17
S'\x00\x00\x00\x00\x00\x00\x00\x00'
p29
tp30
Rp31
F0.21802269200565183
F0.21802269200565183
tp32
tp33
Rp34
sg1
(g2
g3
(S'1.00000000'
p35
S'4.00000000'
p36
S'1.000'
p37
g7
g7
S'3000'
p38
tp39
tp40
Rp41
g1
(g12
g3
(g13
(g17
S'\x86\xc8\xc2\x1d\xf3\xff\xc4?'
p42
tp43
Rp44
g13
(g17
S'm\x1b.\xa0\xa5\xe7}?'
p45
tp46
Rp47
g13
(g17
S'\x00\x00\x00\x00\x00\x00\x00\x00'
p48
tp49
Rp50
g13
(g17
S'\x00\x00\x00\x00\x00\x00\x00\x00'
p51
tp52
Rp53
F0.16406096413772192
F0.16406096413772192
tp54
tp55
Rp56
sg1
(g2
g3
(S'1.00000000'
p57
S'0.03125000'
p58
S'1.000'
p59
g7
g7
S'3000'
p60
tp61
tp62
Rp63
g1
(g12
g3
(g13
(g17
S'%dz\xf6\xff\xf8\xc9?'
p64
tp65
Rp66
g13
(g17
S'\x91LP\xb2.r\x93?'
p67
tp68
Rp69
g13
(g17
S'\x00\x00\x00\x00\x00\x00\x00\x00'
p70
tp71
Rp72
g13
(g17
S'\x00\x00\x00\x00\x00\x00\x00\x00'
p73
tp74
Rp75
F0.2029113725191404
F0.2029113725191404
tp76
tp77
Rp78
sg1
(g2
g3
(S'1.00000000'
p79
S'8.00000000'
p80
S'1.000'
p81
g7
g7
S'3000'
p82
tp83
tp84
Rp85
g1
(g12
g3
(g13
(g17
S'2?\x80a\xbb\xdc\xc4?'
p86
tp87
Rp88
g13
(g17
S'y\x14W\x1f\x00\x0bw?'
p89
tp90
Rp91
g13
(g17
S'\x00\x00\x00\x00\x00\x00\x00\x00'
p92
tp93
Rp94
g13
(g17
S'\x00\x00\x00\x00\x00\x00\x00\x00'
p95
tp96
Rp97
F0.16298620472707054
F0.16298620472707054
tp98
tp99
Rp100
sg1
(g2
g3
(S'1.00000000'
p101
S'0.06250000'
p102
S'1.000'
p103
g7
g7
S'3000'
p104
tp105
tp106
Rp107
g1
(g12
g3
(g13
(g17
S'o6\x17\xd9\xedI\xc9?'
p108
tp109
Rp110
g13
(g17
S't\xc8\x91\xbf\x9cw\x9a?'
p111
tp112
Rp113
g13
(g17
S'\x00\x00\x00\x00\x00\x00\x00\x00'
p114
tp115
Rp116
g13
(g17
S'\x00\x00\x00\x00\x00\x00\x00\x00'
p117
tp118
Rp119
F0.1975686368954714
F0.1975686368954714
tp120
tp121
Rp122
sg1
(g2
g3
(S'1.00000000'
p123
S'0.01562500'
p124
S'1.000'
p125
g7
g7
S'3000'
p126
tp127
tp128
Rp129
g1
(g12
g3
(g13
(g17
S'\x829md\xcf\x88\xcd?'
p130
tp131
Rp132
g13
(g17
S'\xa7\xac"\xbd\xb3q\xa6?'
p133
tp134
Rp135
g13
(g17
S'\x00\x00\x00\x00\x00\x00\x00\x00'
p136
tp137
Rp138
g13
(g17
S'\x00\x00\x00\x00\x00\x00\x00\x00'
p139
tp140
Rp141
F0.2307376137127442
F0.2307376137127442
tp142
tp143
Rp144
sg1
(g2
g3
(S'1.00000000'
p145
S'0.00390625'
p146
S'1.000'
p147
g7
g7
S'3000'
p148
tp149
tp150
Rp151
g1
(g12
g3
(g13
(g17
S'\xda0\xf5\x8fJ`\xcb?'
p152
tp153
Rp154
g13
(g17
S'\x88,\xc2;\x90\r\x96?'
p155
tp156
Rp157
g13
(g17
S'\x00\x00\x00\x00\x00\x00\x00\x00'
p158
tp159
Rp160
g13
(g17
S'\x00\x00\x00\x00\x00\x00\x00\x00'
p161
tp162
Rp163
F0.21387607602299036
F0.21387607602299036
tp164
tp165
Rp166
sg1
(g2
g3
(S'1.00000000'
p167
S'128.00000000'
p168
S'1.000'
p169
g7
g7
S'3000'
p170
tp171
tp172
Rp173
g1
(g12
g3
(g13
(g17
S'P\x06\xd1S\xdc\xd2\xce?'
p174
tp175
Rp176
g13
(g17
S'e\xf7\xd8\x90\xc9\xb8}?'
p177
tp178
Rp179
g13
(g17
S'\x00\x00\x00\x00\x00\x00\x00\x00'
p180
tp181
Rp182
g13
(g17
S'\x00\x00\x00\x00\x00\x00\x00\x00'
p183
tp184
Rp185
F0.24080995648005166
F0.24080995648005166
tp186
tp187
Rp188
sg1
(g2
g3
(S'1.00000000'
p189
S'64.00000000'
p190
S'1.000'
p191
g7
g7
S'3000'
p192
tp193
tp194
Rp195
g1
(g12
g3
(g13
(g17
S'\xa5\xb5\xe83D7\xcd?'
p196
tp197
Rp198
g13
(g17
S'+\x01\x858\x9a\x7f\x82?'
p199
tp200
Rp201
g13
(g17
S'\x00\x00\x00\x00\x00\x00\x00\x00'
p202
tp203
Rp204
g13
(g17
S'\x00\x00\x00\x00\x00\x00\x00\x00'
p205
tp206
Rp207
F0.2282490972005863
F0.2282490972005863
tp208
tp209
Rp210
sg1
(g2
g3
(S'1.00000000'
p211
S'0.50000000'
p212
S'1.000'
p213
g7
g7
S'3000'
p214
tp215
tp216
Rp217
g1
(g12
g3
(g13
(g17
S'\xca]\x06\x19\x81W\xcf?'
p218
tp219
Rp220
g13
(g17
S'\x7fz@\xd3\xa5\t\xb2?'
p221
tp222
Rp223
g13
(g17
S'\x00\x00\x00\x00\x00\x00\x00\x00'
p224
tp225
Rp226
g13
(g17
S'\x00\x00\x00\x00\x00\x00\x00\x00'
p227
tp228
Rp229
F0.24485791894833958
F0.24485791894833958
tp230
tp231
Rp232
sg1
(g2
g3
(S'1.00000000'
p233
S'0.00781250'
p234
S'1.000'
p235
g7
g7
S'3000'
p236
tp237
tp238
Rp239
g1
(g12
g3
(g13
(g17
S'3\xc9\xdd,\xbd\xce\xc9?'
p240
tp241
Rp242
g13
(g17
S'\x91R\x02\x0e\xfe\xe6\x9c?'
p243
tp244
Rp245
g13
(g17
S'\x00\x00\x00\x00\x00\x00\x00\x00'
p246
tp247
Rp248
g13
(g17
S'\x00\x00\x00\x00\x00\x00\x00\x00'
p249
tp250
Rp251
F0.201621672541998
F0.201621672541998
tp252
tp253
Rp254
sg1
(g2
g3
(S'1.00000000'
p255
S'16.00000000'
p256
S'1.000'
p257
g7
g7
S'3000'
p258
tp259
tp260
Rp261
g1
(g12
g3
(g13
(g17
S'\xa1\x97y\x1a\t\xa9\xc5?'
p262
tp263
Rp264
g13
(g17
S'}\xd1\xe8\xcfA\xd3\x81?'
p265
tp266
Rp267
g13
(g17
S'\x00\x00\x00\x00\x00\x00\x00\x00'
p268
tp269
Rp270
g13
(g17
S'\x00\x00\x00\x00\x00\x00\x00\x00'
p271
tp272
Rp273
F0.16922105591509953
F0.16922105591509953
tp274
tp275
Rp276
sg1
(g2
g3
(S'1.00000000'
p277
S'0.25000000'
p278
S'1.000'
p279
g7
g7
S'3000'
p280
tp281
tp282
Rp283
g1
(g12
g3
(g13
(g17
S'\xa3\xf2S\x84\xdaS\xcc?'
p284
tp285
Rp286
g13
(g17
S'I\x05@f\xf5\xea\xa2?'
p287
tp288
Rp289
g13
(g17
S'\x00\x00\x00\x00\x00\x00\x00\x00'
p290
tp291
Rp292
g13
(g17
S'\x00\x00\x00\x00\x00\x00\x00\x00'
p293
tp294
Rp295
F0.22130900822948715
F0.22130900822948715
tp296
tp297
Rp298
sg1
(g2
g3
(S'1.00000000'
p299
S'0.12500000'
p300
S'1.000'
p301
g7
g7
S'3000'
p302
tp303
tp304
Rp305
g1
(g12
g3
(g13
(g17
S'\xe3\x9c%\xdfm\x14\xcc?'
p306
tp307
Rp308
g13
(g17
S'\\\x08\xa2\x92u\x89\xa3?'
p309
tp310
Rp311
g13
(g17
S'\x00\x00\x00\x00\x00\x00\x00\x00'
p312
tp313
Rp314
g13
(g17
S'\x00\x00\x00\x00\x00\x00\x00\x00'
p315
tp316
Rp317
F0.21937344928594546
F0.21937344928594546
tp318
tp319
Rp320
sg1
(g2
g3
(S'1.00000000'
p321
S'32.00000000'
p322
S'1.000'
p323
g7
g7
S'3000'
p324
tp325
tp326
Rp327
g1
(g12
g3
(g13
(g17
S'b4\xb8\xbd\xeaq\xc7?'
p328
tp329
Rp330
g13
(g17
S',LWuj\xf5v?'
p331
tp332
Rp333
g13
(g17
S'\x00\x00\x00\x00\x00\x00\x00\x00'
p334
tp335
Rp336
g13
(g17
S'\x00\x00\x00\x00\x00\x00\x00\x00'
p337
tp338
Rp339
F0.18316396964692944
F0.18316396964692944
tp340
tp341
Rp342
sg1
(g2
g3
(S'1.00000000'
p343
S'2.00000000'
p344
S'1.000'
p345
g7
g7
S'3000'
p346
tp347
tp348
Rp349
g1
(g12
g3
(g13
(g17
S'\xa2c2\xc6<\xb5\xca?'
p350
tp351
Rp352
g13
(g17
S'\xdb\xb8\xd1OG\xbd\x96?'
p353
tp354
Rp355
g13
(g17
S'\x00\x00\x00\x00\x00\x00\x00\x00'
p356
tp357
Rp358
g13
(g17
S'\x00\x00\x00\x00\x00\x00\x00\x00'
p359
tp360
Rp361
F0.20865592649059034
F0.20865592649059034
tp362
tp363
Rp364
s.