(dp0
ccopy_reg
_reconstructor
p1
(cscripts.archipelago_tuples
Parameters
p2
c__builtin__
tuple
p3
(S'10.00000000'
p4
S'0.25000000'
p5
S'10.000'
p6
S'50'
p7
S'11'
p8
tp9
tp10
Rp11
g1
(cscripts.archipelago_tuples
Metrics
p12
g3
(F0.21178804347826086
F0.03789349197992666
F0.30244565217391306
F0.17554347826086958
tp13
tp14
Rp15
sg1
(g2
g3
(S'10.00000000'
p16
S'0.25000000'
p17
S'10.000'
p18
S'50'
p19
S'18'
p20
tp21
tp22
Rp23
g1
(g12
g3
(F0.2995434782608696
F0.11763581372147144
F0.6035326086956523
F0.1766304347826087
tp24
tp25
Rp26
sg1
(g2
g3
(S'10.00000000'
p27
S'0.25000000'
p28
S'10.000'
p29
S'50'
p30
S'3'
p31
tp32
tp33
Rp34
g1
(g12
g3
(F0.17889673913043477
F0.009270131544513201
F0.19266304347826085
F0.16494565217391305
tp35
tp36
Rp37
sg1
(g2
g3
(S'10.00000000'
p38
S'0.25000000'
p39
S'10.000'
p40
S'50'
p41
S'14'
p42
tp43
tp44
Rp45
g1
(g12
g3
(F0.2581467391304348
F0.051459103326815706
F0.3092391304347826
F0.18016304347826084
tp46
tp47
Rp48
sg1
(g2
g3
(S'10.00000000'
p49
S'0.25000000'
p50
S'10.000'
p51
S'50'
p52
S'6'
p53
tp54
tp55
Rp56
g1
(g12
g3
(F0.19516847826086958
F0.020725666812193125
F0.2315217391304348
F0.17201086956521738
tp57
tp58
Rp59
sg1
(g2
g3
(S'10.00000000'
p60
S'0.25000000'
p61
S'10.000'
p62
S'50'
p63
S'9'
p64
tp65
tp66
Rp67
g1
(g12
g3
(F0.20668478260869566
F0.03256104664360819
F0.26331521739130437
F0.1730978260869565
tp68
tp69
Rp70
sg1
(g2
g3
(S'10.00000000'
p71
S'0.25000000'
p72
S'10.000'
p73
S'50'
p74
S'20'
p75
tp76
tp77
Rp78
g1
(g12
g3
(F0.29538043478260867
F0.09069252646282219
F0.6035326086956522
F0.20380434782608697
tp79
tp80
Rp81
sg1
(g2
g3
(S'10.00000000'
p82
S'0.25000000'
p83
S'10.000'
p84
S'50'
p85
S'2'
p86
tp87
tp88
Rp89
g1
(g12
g3
(F0.2543260869565218
F0.02121498997451391
F0.2741847826086957
F0.2217391304347826
tp90
tp91
Rp92
sg1
(g2
g3
(S'10.00000000'
p93
S'0.25000000'
p94
S'10.000'
p95
S'50'
p96
S'5'
p97
tp98
tp99
Rp100
g1
(g12
g3
(F0.17656521739130435
F0.012870081259141773
F0.19483695652173916
F0.15516304347826088
tp101
tp102
Rp103
sg1
(g2
g3
(S'10.00000000'
p104
S'0.25000000'
p105
S'10.000'
p106
S'50'
p107
S'17'
p108
tp109
tp110
Rp111
g1
(g12
g3
(F0.233195652173913
F0.05707242503875548
F0.32527173913043483
F0.17255434782608697
tp112
tp113
Rp114
sg1
(g2
g3
(S'10.00000000'
p115
S'0.25000000'
p116
S'10.000'
p117
S'50'
p118
S'8'
p119
tp120
tp121
Rp122
g1
(g12
g3
(F0.24197282608695653
F0.02603023268515859
F0.2845108695652174
F0.21195652173913043
tp123
tp124
Rp125
sg1
(g2
g3
(S'10.00000000'
p126
S'0.25000000'
p127
S'10.000'
p128
S'50'
p129
S'13'
p130
tp131
tp132
Rp133
g1
(g12
g3
(F0.2633586956521739
F0.06022707092922954
F0.36059782608695656
F0.18749999999999997
tp134
tp135
Rp136
sg1
(g2
g3
(S'10.00000000'
p137
S'0.25000000'
p138
S'10.000'
p139
S'50'
p140
S'4'
p141
tp142
tp143
Rp144
g1
(g12
g3
(F0.19835326086956528
F0.018342283204046836
F0.23125
F0.17907608695652175
tp145
tp146
Rp147
sg1
(g2
g3
(S'10.00000000'
p148
S'0.25000000'
p149
S'10.000'
p150
S'50'
p151
S'16'
p152
tp153
tp154
Rp155
g1
(g12
g3
(F0.270070652173913
F0.06792097930605048
F0.33967391304347827
F0.17010869565217396
tp156
tp157
Rp158
sg1
(g2
g3
(S'10.00000000'
p159
S'0.25000000'
p160
S'10.000'
p161
S'50'
p162
S'19'
p163
tp164
tp165
Rp166
g1
(g12
g3
(F0.2820326086956522
F0.11828388578761448
F0.6040760869565218
F0.16494565217391305
tp167
tp168
Rp169
sg1
(g2
g3
(S'10.00000000'
p170
S'0.25000000'
p171
S'10.000'
p172
S'50'
p173
S'12'
p174
tp175
tp176
Rp177
g1
(g12
g3
(F0.22345652173913044
F0.06063634897294108
F0.36576086956521736
F0.17228260869565215
tp178
tp179
Rp180
sg1
(g2
g3
(S'10.00000000'
p181
S'0.25000000'
p182
S'10.000'
p183
S'50'
p184
S'15'
p185
tp186
tp187
Rp188
g1
(g12
g3
(F0.2706847826086956
F0.057039110222552446
F0.35489130434782606
F0.19347826086956518
tp189
tp190
Rp191
sg1
(g2
g3
(S'10.00000000'
p192
S'0.25000000'
p193
S'10.000'
p194
S'50'
p195
S'10'
p196
tp197
tp198
Rp199
g1
(g12
g3
(F0.1955760869565218
F0.03027853082997538
F0.24021739130434788
F0.15815217391304348
tp200
tp201
Rp202
sg1
(g2
g3
(S'10.00000000'
p203
S'0.25000000'
p204
S'10.000'
p205
S'50'
p206
S'7'
p207
tp208
tp209
Rp210
g1
(g12
g3
(F0.19378260869565214
F0.0171642514243981
F0.21766304347826088
F0.16793478260869565
tp211
tp212
Rp213
s.