(dp0
ccopy_reg
_reconstructor
p1
(cscripts.archipelago_tuples
Parameters
p2
c__builtin__
tuple
p3
(S'1.00000000'
p4
S'2.00000000'
p5
S'1.000'
p6
S'10'
p7
S'10'
p8
S'500'
p9
tp10
tp11
Rp12
g1
(cscripts.archipelago_tuples
Metrics
p13
g3
(cnumpy.core.multiarray
scalar
p14
(cnumpy
dtype
p15
(S'f8'
p16
I0
I1
tp17
Rp18
(I3
S'<'
p19
NNNI-1
I-1
I0
tp20
bS'\xbb\xcd\xfd\xf2\xdfT\xc4?'
p21
tp22
Rp23
g14
(g18
S'\x1f;\x97\xc8b\xf8v?'
p24
tp25
Rp26
F0.0
F0.15884017338576747
tp27
tp28
Rp29
sg1
(g2
g3
(S'1.00000000'
p30
S'2.00000000'
p31
S'1.000'
p32
S'18'
p33
S'18'
p34
S'500'
p35
tp36
tp37
Rp38
g1
(g13
g3
(g14
(g18
S'\xf5\xf3N|\xe4V\xc4?'
p39
tp40
Rp41
g14
(g18
S'fw[1\xbf\xdcu?'
p42
tp43
Rp44
F0.0
F0.1589017493223818
tp45
tp46
Rp47
sg1
(g2
g3
(S'1.00000000'
p48
S'2.00000000'
p49
S'1.000'
p50
S'20'
p51
S'20'
p52
S'500'
p53
tp54
tp55
Rp56
g1
(g13
g3
(g14
(g18
S'u\xd1\x9c\x1e\xdaP\xc4?'
p57
tp58
Rp59
g14
(g18
S'\x1b\xf8\xf3\x10\xba\xaat?'
p60
tp61
Rp62
F0.0
F0.15871740813021132
tp63
tp64
Rp65
sg1
(g2
g3
(S'1.00000000'
p66
S'2.00000000'
p67
S'1.000'
p68
S'12'
p69
S'12'
p70
S'500'
p71
tp72
tp73
Rp74
g1
(g13
g3
(g14
(g18
S'\x91DXL\xc1@\xc4?'
p75
tp76
Rp77
g14
(g18
S'\xd3I\x83\x12\x92\xf0y?'
p78
tp79
Rp80
F0.0
F0.1582261679436994
tp81
tp82
Rp83
sg1
(g2
g3
(S'1.00000000'
p84
S'2.00000000'
p85
S'1.000'
p86
S'8'
p87
g87
S'500'
p88
tp89
tp90
Rp91
g1
(g13
g3
(g14
(g18
S'\xebP\xfdO-\x83\xc4?'
p92
tp93
Rp94
g14
(g18
S'6&|&\xfcR\x7f?'
p95
tp96
Rp97
F0.0
F0.16025320440042576
tp98
tp99
Rp100
sg1
(g2
g3
(S'1.00000000'
p101
S'2.00000000'
p102
S'1.000'
p103
S'13'
p104
S'13'
p105
S'500'
p106
tp107
tp108
Rp109
g1
(g13
g3
(g14
(g18
S'\xfaK\x85&\xdcQ\xc4?'
p110
tp111
Rp112
g14
(g18
S"{\xca\xe4'\x9e'~?"
p113
tp114
Rp115
F0.0
F0.15874816780942053
tp116
tp117
Rp118
sg1
(g2
g3
(S'1.00000000'
p119
S'2.00000000'
p120
S'1.000'
p121
S'11'
p122
S'11'
p123
S'500'
p124
tp125
tp126
Rp127
g1
(g13
g3
(g14
(g18
S'\x12\xd4\xed\xfd\x08n\xc4?'
p128
tp129
Rp130
g14
(g18
S'\xfe\xa2\x89\x08\xfeAw?'
p131
tp132
Rp133
F0.0
F0.15960800551297943
tp134
tp135
Rp136
sg1
(g2
g3
(S'1.00000000'
p137
S'2.00000000'
p138
S'1.000'
p139
S'5'
p140
g140
S'500'
p141
tp142
tp143
Rp144
g1
(g13
g3
(g14
(g18
S'.\x88D&\xfed\xc4?'
p145
tp146
Rp147
g14
(g18
S'\x0e;D\xa4\xec\xb5{?'
p148
tp149
Rp150
F0.0
F0.1593320547918337
tp151
tp152
Rp153
sg1
(g2
g3
(S'1.00000000'
p154
S'2.00000000'
p155
S'1.000'
p156
S'1'
p157
g157
S'500'
p158
tp159
tp160
Rp161
g1
(g13
g3
(g14
(g18
S'wVA\n\xe2\x92\xc5?'
p162
tp163
Rp164
g14
(g18
S'\x11\x04Dc\xc3V{?'
p165
tp166
Rp167
F0.0
F0.16854501248115003
tp168
tp169
Rp170
sg1
(g2
g3
(S'1.00000000'
p171
S'2.00000000'
p172
S'1.000'
p173
S'16'
p174
S'16'
p175
S'500'
p176
tp177
tp178
Rp179
g1
(g13
g3
(g14
(g18
S'\x93\xf2\xd7\x81\xc0@\xc4?'
p180
tp181
Rp182
g14
(g18
S'dAq\xdb\x86\xf2t?'
p183
tp184
Rp185
F0.0
F0.15822607364670613
tp186
tp187
Rp188
sg1
(g2
g3
(S'1.00000000'
p189
S'2.00000000'
p190
S'1.000'
p191
S'4'
p192
g192
S'500'
p193
tp194
tp195
Rp196
g1
(g13
g3
(g14
(g18
S'\x10"\xa5\x07\x03i\xc4?'
p197
tp198
Rp199
g14
(g18
S'\x02\x98\xf9Pj\xe8x?'
p200
tp201
Rp202
F0.0
F0.15945470689099794
tp203
tp204
Rp205
sg1
(g2
g3
(S'1.00000000'
p206
S'2.00000000'
p207
S'1.000'
p208
S'7'
p209
g209
S'500'
p210
tp211
tp212
Rp213
g1
(g13
g3
(g14
(g18
S'\x92\xadr\xdf\xf7b\xc4?'
p214
tp215
Rp216
g14
(g18
S'L+\x85}\x0e\x9ao?'
p217
tp218
Rp219
F0.0
F0.1592702714018342
tp220
tp221
Rp222
sg1
(g2
g3
(S'1.00000000'
p223
S'2.00000000'
p224
S'1.000'
p225
S'19'
p226
S'19'
p227
S'500'
p228
tp229
tp230
Rp231
g1
(g13
g3
(g14
(g18
S'i\xb6(\x18\xc4B\xc4?'
p232
tp233
Rp234
g14
(g18
S'j\xd41!}yl?'
p235
tp236
Rp237
F0.0
F0.15828753642692853
tp238
tp239
Rp240
sg1
(g2
g3
(S'1.00000000'
p241
S'2.00000000'
p242
S'1.000'
p243
S'6'
p244
g244
S'500'
p245
tp246
tp247
Rp248
g1
(g13
g3
(g14
(g18
S'\xb0\xe6\x07\xf17\x88\xc4?'
p249
tp250
Rp251
g14
(g18
S'm\xfb\x03\xc7\x12\x17\x82?'
p252
tp253
Rp254
F0.0
F0.1604070593746676
tp255
tp256
Rp257
sg1
(g2
g3
(S'1.00000000'
p258
S'2.00000000'
p259
S'1.000'
p260
S'14'
p261
S'14'
p262
S'500'
p263
tp264
tp265
Rp266
g1
(g13
g3
(g14
(g18
S'*\xd3O\x12\x98(\xc4?'
p267
tp268
Rp269
g14
(g18
S'M\x81sc\x95,v?'
p270
tp271
Rp272
F0.0
F0.15748883146411546
tp273
tp274
Rp275
sg1
(g2
g3
(S'1.00000000'
p276
S'2.00000000'
p277
S'1.000'
p278
S'2'
p279
g279
S'500'
p280
tp281
tp282
Rp283
g1
(g13
g3
(g14
(g18
S'?\xb0>\xda\x8c\xc1\xc4?'
p284
tp285
Rp286
g14
(g18
S'\xb6\x99g\xe4G\xac~?'
p287
tp288
Rp289
F0.0
F0.1621566835068524
tp290
tp291
Rp292
sg1
(g2
g3
(S'1.00000000'
p293
S'2.00000000'
p294
S'1.000'
p295
S'3'
p296
g296
S'500'
p297
tp298
tp299
Rp300
g1
(g13
g3
(g14
(g18
S'(\xaa\r\xdf/\x85\xc4?'
p301
tp302
Rp303
g14
(g18
S'=\xf50\xe9n\xa6r?'
p304
tp305
Rp306
F0.0
F0.16031454459455685
tp307
tp308
Rp309
sg1
(g2
g3
(S'1.00000000'
p310
S'2.00000000'
p311
S'1.000'
p312
S'9'
p313
g313
S'500'
p314
tp315
tp316
Rp317
g1
(g13
g3
(g14
(g18
S'\xaf@\x1b$\xfac\xc4?'
p318
tp319
Rp320
g14
(g18
S'FKc[\x0e\x02y?'
p321
tp322
Rp323
F0.0
F0.15930105937014136
tp324
tp325
Rp326
sg1
(g2
g3
(S'1.00000000'
p327
S'2.00000000'
p328
S'1.000'
p329
S'15'
p330
S'15'
p331
S'500'
p332
tp333
tp334
Rp335
g1
(g13
g3
(g14
(g18
S'\xecp\xebM\xfce\xc4?'
p336
tp337
Rp338
g14
(g18
S'\xce(Ik\x1d\x10s?'
p339
tp340
Rp341
F0.0
F0.1593623524157758
tp342
tp343
Rp344
sg1
(g2
g3
(S'1.00000000'
p345
S'2.00000000'
p346
S'1.000'
p347
S'17'
p348
S'17'
p349
S'500'
p350
tp351
tp352
Rp353
g1
(g13
g3
(g14
(g18
S'\xd3\xcc^ \xbb=\xc4?'
p354
tp355
Rp356
g14
(g18
S'\xf4\xff>\xf4\xe6\xddy?'
p357
tp358
Rp359
F0.0
F0.15813387947637256
tp360
tp361
Rp362
s.