(dp0
ccopy_reg
_reconstructor
p1
(cscripts.archipelago_tuples
Parameters
p2
c__builtin__
tuple
p3
(S'1.00000000'
p4
S'0.00781250'
p5
S'1.000'
p6
S'10'
p7
S'10'
p8
tp9
tp10
Rp11
g1
(cscripts.archipelago_tuples
Metrics
p12
g3
(F0.3979037267080745
F0.0
F0.3979037267080745
F0.3979037267080745
tp13
tp14
Rp15
s.