(dp0
ccopy_reg
_reconstructor
p1
(cscripts.archipelago_tuples
Parameters
p2
c__builtin__
tuple
p3
(S'1.00000000'
p4
S'4.00000000'
p5
S'1.000'
p6
S'20'
p7
S'20'
p8
S'100'
p9
tp10
tp11
Rp12
g1
(cscripts.archipelago_tuples
Metrics
p13
g3
(cnumpy.core.multiarray
scalar
p14
(cnumpy
dtype
p15
(S'f8'
p16
I0
I1
tp17
Rp18
(I3
S'<'
p19
NNNI-1
I-1
I0
tp20
bS'~D\xc9\x1f\xa42\xc9?'
p21
tp22
Rp23
g14
(g18
S'\x96\xf7Ko^jv?'
p24
tp25
Rp26
g14
(g18
S'h\xbc\xcd\xc7\xeb\xb0\x88?'
p27
tp28
Rp29
g14
(g18
S'\x94\xe9\xffq\x84\xdfN?'
p30
tp31
Rp32
F0.21835907766979307
F0.1733667572169261
tp33
tp34
Rp35
sg1
(g2
g3
(S'1.00000000'
p36
S'2.00000000'
p37
S'1.000'
p38
S'20'
p39
S'20'
p40
S'100'
p41
tp42
tp43
Rp44
g1
(g13
g3
(g14
(g18
S'\x06\xaaH\xedxP\xc8?'
p45
tp46
Rp47
g14
(g18
S'\x18\x16\xbc\xea\xe4\x8bm?'
p48
tp49
Rp50
g14
(g18
S'\x1f\x8c\xbe\xb4g\xb8\x86?'
p51
tp52
Rp53
g14
(g18
S'\r\x0e]F\x01\xe0c?'
p54
tp55
Rp56
F0.21046628731614914
F0.17241515910920271
tp57
tp58
Rp59
sg1
(g2
g3
(S'1.00000000'
p60
S'0.50000000'
p61
S'1.000'
p62
S'20'
p63
S'20'
p64
S'100'
p65
tp66
tp67
Rp68
g1
(g13
g3
(g14
(g18
S'\xa4q\x12{Y\xd2\xc8?'
p69
tp70
Rp71
g14
(g18
S'\x05\xcd\x982\xc2\x03v?'
p72
tp73
Rp74
g14
(g18
S'\xa0$A\x89\xc5\x9a\x8b?'
p75
tp76
Rp77
g14
(g18
S'\xe1\xc7n\xc1-\xe5`?'
p78
tp79
Rp80
F0.22204538287973966
F0.16851446968502543
tp81
tp82
Rp83
sg1
(g2
g3
(S'1.00000000'
p84
S'16.00000000'
p85
S'1.000'
p86
S'20'
p87
S'20'
p88
S'100'
p89
tp90
tp91
Rp92
g1
(g13
g3
(g14
(g18
S'\xe8\x0c\x15y\x85\xd9\xcd?'
p93
tp94
Rp95
g14
(g18
S'g\xdbmL\x8f\xdcz?'
p96
tp97
Rp98
g14
(g18
S'\x1e\xe8\xf2\x94\xea\r\x88?'
p99
tp100
Rp101
g14
(g18
S'/\xaal2\x06Vc?'
p102
tp103
Rp104
F0.24080939069809199
F0.19707653860632066
tp105
tp106
Rp107
sg1
(g2
g3
(S'1.00000000'
p108
S'8.00000000'
p109
S'1.000'
p110
S'20'
p111
S'20'
p112
S'100'
p113
tp114
tp115
Rp116
g1
(g13
g3
(g14
(g18
S'\xd5\xd6\xd3o8.\xcc?'
p117
tp118
Rp119
g14
(g18
S'\xe6\xf0\x92\x10\x11\xb9{?'
p120
tp121
Rp122
g14
(g18
S'Sk{<\x82\xb4\x92?'
p123
tp124
Rp125
g14
(g18
S'\x8dH\x8f P\xaee?'
p126
tp127
Rp128
F0.24084041440888235
F0.1817815662956897
tp129
tp130
Rp131
sg1
(g2
g3
(S'1.00000000'
p132
S'1.00000000'
p133
S'1.000'
p134
S'20'
p135
S'20'
p136
S'100'
p137
tp138
tp139
Rp140
g1
(g13
g3
(g14
(g18
S'Wpvz\xf1\x9a\xc8?'
p141
tp142
Rp143
g14
(g18
S'\xb9\x8ePuV>t?'
p144
tp145
Rp146
g14
(g18
S'\x98\xfb_\t\xb8}\x8f?'
p147
tp148
Rp149
g14
(g18
S'\xc8&aE\xe6\xa2V?'
p150
tp151
Rp152
F0.22382586098812687
F0.17223061046364702
tp153
tp154
Rp155
sg1
(g2
g3
(S'1.00000000'
p156
S'0.25000000'
p157
S'1.000'
p158
S'20'
p159
S'20'
p160
S'100'
p161
tp162
tp163
Rp164
g1
(g13
g3
(g14
(g18
S'\n0\xb8\x89\xcc\x03\xc9?'
p165
tp166
Rp167
g14
(g18
S'\xb2\xed\xbd\x92s&s?'
p168
tp169
Rp170
g14
(g18
S'\xaa\xaf2\xb9:"\x8c?'
p171
tp172
Rp173
g14
(g18
S'?\x1b\xc4\xb5\xaagR?'
p174
tp175
Rp176
F0.22692756255851126
F0.17262947731553813
tp177
tp178
Rp179
s.