(dp0
ccopy_reg
_reconstructor
p1
(cscripts.archipelago_tuples
Parameters
p2
c__builtin__
tuple
p3
(S'1.00000000'
p4
S'4.00000000'
p5
S'1.000'
p6
S'30'
p7
S'20'
p8
S'300'
p9
tp10
tp11
Rp12
g1
(cscripts.archipelago_tuples
Metrics
p13
g3
(cnumpy.core.multiarray
scalar
p14
(cnumpy
dtype
p15
(S'f8'
p16
I0
I1
tp17
Rp18
(I3
S'<'
p19
NNNI-1
I-1
I0
tp20
bS'\xc1\xad\x9c\x8a\x0f\x1a\xc5?'
p21
tp22
Rp23
g14
(g18
S'/3>v\x06s@?'
p24
tp25
Rp26
g14
(g18
S'8?\x85\xb1^ne?'
p27
tp28
Rp29
g14
(g18
S'\x08\xd5\xa898\xbd=?'
p30
tp31
Rp32
F0.17200417664762607
F0.1599103249186168
tp33
tp34
Rp35
sg1
(g2
g3
(S'1.00000000'
p36
S'4.00000000'
p37
S'1.000'
p38
S'30'
p39
S'5'
p40
S'300'
p41
tp42
tp43
Rp44
g1
(g13
g3
(g14
(g18
S'\rp\xd7P@\x13\xc5?'
p45
tp46
Rp47
g14
(g18
S'`f\xb7\xe0&+U?'
p48
tp49
Rp50
g14
(g18
S'\xbb\xd4\x9e(\x91\x80E?'
p51
tp52
Rp53
g14
(g18
S'\x02*\xc7C\xbd\x99\x15?'
p54
tp55
Rp56
F0.16594803758982862
F0.1633622013389841
tp57
tp58
Rp59
sg1
(g2
g3
(S'1.00000000'
p60
S'4.00000000'
p61
S'1.000'
p62
S'30'
p63
S'25'
p64
S'300'
p65
tp66
tp67
Rp68
g1
(g13
g3
(g14
(g18
S'\xb5\x1b\xbd\x91\x9c\x18\xc5?'
p69
tp70
Rp71
g14
(g18
S'yP~\xef\xa9\xdfG?'
p72
tp73
Rp74
g14
(g18
S'E<\xcb\x9d\x1ayf?'
p75
tp76
Rp77
g14
(g18
S'\t\xd5\xa0\xbb\xbe\xcaB?'
p78
tp79
Rp80
F0.17368711995577665
F0.15989189853203117
tp81
tp82
Rp83
sg1
(g2
g3
(S'1.00000000'
p84
S'4.00000000'
p85
S'1.000'
p86
S'30'
p87
S'30'
p88
S'300'
p89
tp90
tp91
Rp92
g1
(g13
g3
(g14
(g18
S',\xefy\x99S\x0f\xc5?'
p93
tp94
Rp95
g14
(g18
S'?bt\xc8[KB?'
p96
tp97
Rp98
g14
(g18
S'\x1a\x91\x151tqf?'
p99
tp100
Rp101
g14
(g18
S'2#\xb5\x84O\x12B?'
p102
tp103
Rp104
F0.17274737423991154
F0.1595356550580431
tp105
tp106
Rp107
sg1
(g2
g3
(S'1.00000000'
p108
S'4.00000000'
p109
S'1.000'
p110
S'30'
p111
S'10'
p112
S'300'
p113
tp114
tp115
Rp116
g1
(g13
g3
(g14
(g18
S'\x9fA\xa3\x10[,\xc5?'
p117
tp118
Rp119
g14
(g18
S'\xdec\xd7\xb0\xf2yS?'
p120
tp121
Rp122
g14
(g18
S'\x93\xadYW-9J?'
p123
tp124
Rp125
g14
(g18
S'\x80\xe5\x04$\xfd\x84-?'
p126
tp127
Rp128
F0.16712732633130642
F0.16387199803451877
tp129
tp130
Rp131
sg1
(g2
g3
(S'1.00000000'
p132
S'4.00000000'
p133
S'1.000'
p134
S'30'
p135
S'1'
p136
S'300'
p137
tp138
tp139
Rp140
g1
(g13
g3
(g14
(g18
S'2\xbd\xa0-\xd96\xc5?'
p141
tp142
Rp143
g14
(g18
S'\x06e8F\xe5KM?'
p144
tp145
Rp146
g14
(g18
S'\xee8\xfa\x93\x8c\xc06?'
p147
tp148
Rp149
g14
(g18
S'w+\xba\xe5Wu\x16?'
p150
tp151
Rp152
F0.16644555002763955
F0.16501443400282537
tp153
tp154
Rp155
sg1
(g2
g3
(S'1.00000000'
p156
S'4.00000000'
p157
S'1.000'
p158
S'30'
p159
S'15'
p160
S'300'
p161
tp162
tp163
Rp164
g1
(g13
g3
(g14
(g18
S'@\xa7F\x9ce\x18\xc5?'
p165
tp166
Rp167
g14
(g18
S'+6\xdcI\xb8tJ?'
p168
tp169
Rp170
g14
(g18
S'\x92\x9c\x8f-.\x0ce?'
p171
tp172
Rp173
g14
(g18
S'\xf8\xac\x08\x0f\x19\xd2;?'
p174
tp175
Rp176
F0.17231128309071925
F0.1601990049751244
tp177
tp178
Rp179
s.