(dp0
ccopy_reg
_reconstructor
p1
(cscripts.archipelago_tuples
Parameters
p2
c__builtin__
tuple
p3
(S'1.00000000'
p4
S'4.00000000'
p5
S'1.000'
p6
S'20'
p7
S'20'
p8
S'100'
p9
tp10
tp11
Rp12
g1
(cscripts.archipelago_tuples
Metrics
p13
g3
(cnumpy.core.multiarray
scalar
p14
(cnumpy
dtype
p15
(S'f8'
p16
I0
I1
tp17
Rp18
(I3
S'<'
p19
NNNI-1
I-1
I0
tp20
bS'a\xbb;\x92\xc3\x9f\xc7?'
p21
tp22
Rp23
g14
(g18
S'\xf7>\xbc:\x8a\xdcr?'
p24
tp25
Rp26
g14
(g18
S'\xaaz\xc7\xe7;\xcez?'
p27
tp28
Rp29
g14
(g18
S'\xbcE/\xe6\xed5M?'
p30
tp31
Rp32
F0.1984894658942863
F0.17115584162329633
tp33
tp34
Rp35
sg1
(g2
g3
(S'1.00000000'
p36
S'2.00000000'
p37
S'1.000'
p38
S'20'
p39
S'20'
p40
S'100'
p41
tp42
tp43
Rp44
g1
(g13
g3
(g14
(g18
S'2\x8cM\xb8\xa3A\xc6?'
p45
tp46
Rp47
g14
(g18
S'\x16e\x98\xa1\xaf\x81r?'
p48
tp49
Rp50
g14
(g18
S'\xe1\x082\xfc\x1d\xa5\x82?'
p51
tp52
Rp53
g14
(g18
S'-\xad\x7f>\xb8\xd1Y?'
p54
tp55
Rp56
F0.20429362499519085
F0.16240260063563713
tp57
tp58
Rp59
sg1
(g2
g3
(S'1.00000000'
p60
S'0.50000000'
p61
S'1.000'
p62
S'20'
p63
S'20'
p64
S'100'
p65
tp66
tp67
Rp68
g1
(g13
g3
(g14
(g18
S'\xde\xe5\xbe\x81\xad\xaf\xc6?'
p69
tp70
Rp71
g14
(g18
S'\xb6\xa3\x1fNA\x18v?'
p72
tp73
Rp74
g14
(g18
S'6\xdf\xbfj\x7f7\x85?'
p75
tp76
Rp77
g14
(g18
S'\x18\xdch$\xa9\xf4P?'
p78
tp79
Rp80
F0.198427173300523
F0.1634467606719679
tp81
tp82
Rp83
sg1
(g2
g3
(S'1.00000000'
p84
S'16.00000000'
p85
S'1.000'
p86
S'20'
p87
S'20'
p88
S'100'
p89
tp90
tp91
Rp92
g1
(g13
g3
(g14
(g18
S'\xf5\xc9\xc8\xfc\xb9\x85\xce?'
p93
tp94
Rp95
g14
(g18
S'\n\x7f\xf4\xbc\x7f\xac\x83?'
p96
tp97
Rp98
g14
(g18
S'\x01\x14\x82X4\xc1r?'
p99
tp100
Rp101
g14
(g18
S'_l\xd9\xba\xe4\x85`?'
p102
tp103
Rp104
F0.24084064072166625
F0.22176947930709062
tp105
tp106
Rp107
sg1
(g2
g3
(S'1.00000000'
p108
S'8.00000000'
p109
S'1.000'
p110
S'20'
p111
S'20'
p112
S'100'
p113
tp114
tp115
Rp116
g1
(g13
g3
(g14
(g18
S'\x05\x7f\xf8\x7fy\x10\xca?'
p117
tp118
Rp119
g14
(g18
S'\xf6{\xdc\x0bc\x04\x86?'
p120
tp121
Rp122
g14
(g18
S'\x8e\x0cx`T\x13\x86?'
p123
tp124
Rp125
g14
(g18
S'XCV+\x03\xb2]?'
p126
tp127
Rp128
F0.21630091377558372
F0.17686767453807675
tp129
tp130
Rp131
sg1
(g2
g3
(S'1.00000000'
p132
S'1.00000000'
p133
S'1.000'
p134
S'20'
p135
S'20'
p136
S'100'
p137
tp138
tp139
Rp140
g1
(g13
g3
(g14
(g18
S'j\x85\xeclB\xe4\xc6?'
p141
tp142
Rp143
g14
(g18
S'\x16\x91\xaa\x8ca\xa9|?'
p144
tp145
Rp146
g14
(g18
S'\x1e\xb0\xe8@\\\x81\x8d?'
p147
tp148
Rp149
g14
(g18
S'$\xa4\x1e\xb9I\x92d?'
p150
tp151
Rp152
F0.22735844323962223
F0.16464437020546938
tp153
tp154
Rp155
sg1
(g2
g3
(S'1.00000000'
p156
S'0.25000000'
p157
S'1.000'
p158
S'20'
p159
S'20'
p160
S'100'
p161
tp162
tp163
Rp164
g1
(g13
g3
(g14
(g18
S'\xc7\xf9Q\xfb\xebd\xc7?'
p165
tp166
Rp167
g14
(g18
S'$\x90\xa7\x80T\xae\x7f?'
p168
tp169
Rp170
g14
(g18
S'\x96\xc5\xca\xeei\xa6\x86?'
p171
tp172
Rp173
g14
(g18
S'\xdc\x0b\xc6\xbd\x07\xfeU?'
p174
tp175
Rp176
F0.2105275426429863
F0.16836061471078356
tp177
tp178
Rp179
s.