(dp0
ccopy_reg
_reconstructor
p1
(cscripts.archipelago_tuples
Parameters
p2
c__builtin__
tuple
p3
(S'1.00000000'
p4
S'0.50000000'
p5
S'1.000'
p6
S'20'
p7
S'1'
p8
S'100'
p9
tp10
tp11
Rp12
g1
(cscripts.archipelago_tuples
Metrics
p13
g3
(cnumpy.core.multiarray
scalar
p14
(cnumpy
dtype
p15
(S'f8'
p16
I0
I1
tp17
Rp18
(I3
S'<'
p19
NNNI-1
I-1
I0
tp20
bS'\x89\xef\xd9\xe2e\x85\xc8?'
p21
tp22
Rp23
g14
(g18
S'5\xf8\x00\xd8\xfb\xa0s?'
p24
tp25
Rp26
g14
(g18
S'\xaa\xd9\x03\x8b\xbb\r\x8a?'
p27
tp28
Rp29
g14
(g18
S'\x05\x01\xdex\xfd\x9fV?'
p30
tp31
Rp32
F0.21719209579971016
F0.17149318911676908
tp33
tp34
Rp35
sg1
(g2
g3
(S'1.00000000'
p36
S'0.50000000'
p37
S'1.000'
p38
S'20'
p39
S'20'
p40
S'100'
p41
tp42
tp43
Rp44
g1
(g13
g3
(g14
(g18
S'\x98\xeb\xdd\xe5\xfbT\xc7?'
p45
tp46
Rp47
g14
(g18
S'$,o\xd0\x17\xfey?'
p48
tp49
Rp50
g14
(g18
S'\xd6+\xc5T"\xc9\x7f?'
p51
tp52
Rp53
g14
(g18
S'\x17\xa8\xe2U\x0f}_?'
p54
tp55
Rp56
F0.19962484884191972
F0.16876033023561424
tp57
tp58
Rp59
sg1
(g2
g3
(S'1.00000000'
p60
S'0.50000000'
p61
S'1.000'
p62
S'20'
p63
S'4'
p64
S'100'
p65
tp66
tp67
Rp68
g1
(g13
g3
(g14
(g18
S";F'\x8f\xd3\xf2\xc7?"
p69
tp70
Rp71
g14
(g18
S'\xe7)\t(\xcf\x8er?'
p72
tp73
Rp74
g14
(g18
S'K\x85A\xe4H\xb3\x90?'
p75
tp76
Rp77
g14
(g18
S'kx\x12\xb3\xcb&b?'
p78
tp79
Rp80
F0.2436051362440678
F0.16808435280956002
tp81
tp82
Rp83
sg1
(g2
g3
(S'1.00000000'
p84
S'0.50000000'
p85
S'1.000'
p86
S'20'
p87
S'10'
p88
S'100'
p89
tp90
tp91
Rp92
g1
(g13
g3
(g14
(g18
S'\xa9\xf9`\x91\xc7\xc3\xc7?'
p93
tp94
Rp95
g14
(g18
S'\x9e,\xcf\xa3\xe7\x80s?'
p96
tp97
Rp98
g14
(g18
S'\xc6\x18\xcd\xb2<)\x89?'
p99
tp100
Rp101
g14
(g18
S'\xa3\x95A\xd2\x9bda?'
p102
tp103
Rp104
F0.2159638114542935
F0.1671632692088633
tp105
tp106
Rp107
sg1
(g2
g3
(S'1.00000000'
p108
S'0.50000000'
p109
S'1.000'
p110
S'20'
p111
S'5'
p112
S'100'
p113
tp114
tp115
Rp116
g1
(g13
g3
(g14
(g18
S'\x1b\x91~\x08:\x93\xc7?'
p117
tp118
Rp119
g14
(g18
S'\xae*$k\xf4\xe0t?'
p120
tp121
Rp122
g14
(g18
S'\xeb\x0bm\xcb\x04c\x87?'
p123
tp124
Rp125
g14
(g18
S'\xb2w\xb0j\xd6\xe8Y?'
p126
tp127
Rp128
F0.2110192543144646
F0.16786949711036298
tp129
tp130
Rp131
sg1
(g2
g3
(S'1.00000000'
p132
S'0.50000000'
p133
S'1.000'
p134
S'20'
p135
S'2'
p136
S'100'
p137
tp138
tp139
Rp140
g1
(g13
g3
(g14
(g18
S'r\xb2k\xe3\xb1s\xc8?'
p141
tp142
Rp143
g14
(g18
S"W'\xda\xdd\xd0\xdcs?"
p144
tp145
Rp146
g14
(g18
S'~\x87)\xa4\xd3k\x86?'
p147
tp148
Rp149
g14
(g18
S'\x96_er\x0e\xf9T?'
p150
tp151
Rp152
F0.2099444666147153
F0.17008072388407053
tp153
tp154
Rp155
s.