(dp0
ccopy_reg
_reconstructor
p1
(cscripts.archipelago_tuples
Parameters
p2
c__builtin__
tuple
p3
(S'1.00000000'
p4
S'2.00000000'
p5
S'1.000'
p6
S'9'
p7
g7
S'250'
p8
tp9
tp10
Rp11
g1
(cscripts.archipelago_tuples
Metrics
p12
g3
(cnumpy.core.multiarray
scalar
p13
(cnumpy
dtype
p14
(S'f8'
p15
I0
I1
tp16
Rp17
(I3
S'<'
p18
NNNI-1
I-1
I0
tp19
bS'`\x89u^T<\xc5?'
p20
tp21
Rp22
g13
(g17
S'\x8cm\xf3\xa79\x9ey?'
p23
tp24
Rp25
F0.0
F0.16590361225378114
tp26
tp27
Rp28
sg1
(g2
g3
(S'1.00000000'
p29
S'2.00000000'
p30
S'1.000'
p31
S'15'
p32
S'15'
p33
S'250'
p34
tp35
tp36
Rp37
g1
(g12
g3
(g13
(g17
S'\x15h3G\xc8\xe2\xc4?'
p38
tp39
Rp40
g13
(g17
S"\xa5@'D\xe8my?"
p41
tp42
Rp43
F0.0
F0.16317084766961956
tp44
tp45
Rp46
sg1
(g2
g3
(S'1.00000000'
p47
S'2.00000000'
p48
S'1.000'
p49
S'5'
p50
g50
S'250'
p51
tp52
tp53
Rp54
g1
(g12
g3
(g13
(g17
S'\xbe7@<_A\xc5?'
p55
tp56
Rp57
g13
(g17
S'He+n\x1f\xdd{?'
p58
tp59
Rp60
F0.0
F0.16605749551712096
tp61
tp62
Rp63
sg1
(g2
g3
(S'1.00000000'
p64
S'2.00000000'
p65
S'1.000'
p66
S'7'
p67
g67
S'250'
p68
tp69
tp70
Rp71
g1
(g12
g3
(g13
(g17
S'\xb9;\xa0E\x8d\xbd\xc4?'
p72
tp73
Rp74
g13
(g17
S'\xab\xb9\xd8d\xe7\x9ct?'
p75
tp76
Rp77
F0.0
F0.16203466319754314
tp78
tp79
Rp80
sg1
(g2
g3
(S'1.00000000'
p81
S'2.00000000'
p82
S'1.000'
p83
S'12'
p84
S'12'
p85
S'250'
p86
tp87
tp88
Rp89
g1
(g12
g3
(g13
(g17
S'SJLg\xd0\xe9\xc4?'
p90
tp91
Rp92
g13
(g17
S"\x7f\ry'R\xffx?"
p93
tp94
Rp95
F0.0
F0.16338543933723546
tp96
tp97
Rp98
sg1
(g2
g3
(S'1.00000000'
p99
S'2.00000000'
p100
S'1.000'
p101
S'10'
p102
S'10'
p103
S'250'
p104
tp105
tp106
Rp107
g1
(g12
g3
(g13
(g17
S'G\na\xbc\xc0\xe0\xc4?'
p108
tp109
Rp110
g13
(g17
S'R]vD\xd1Gw?'
p111
tp112
Rp113
F0.0
F0.16310891340443076
tp114
tp115
Rp116
sg1
(g2
g3
(S'1.00000000'
p117
S'2.00000000'
p118
S'1.000'
p119
S'17'
p120
S'17'
p121
S'250'
p122
tp123
tp124
Rp125
g1
(g12
g3
(g13
(g17
S'\x060\xda\x1d\xc6\xe3\xc4?'
p126
tp127
Rp128
g13
(g17
S'8[9^z\xaa{?'
p129
tp130
Rp131
F0.0
F0.1632011075747643
tp132
tp133
Rp134
sg1
(g2
g3
(S'1.00000000'
p135
S'2.00000000'
p136
S'1.000'
p137
S'18'
p138
S'18'
p139
S'250'
p140
tp141
tp142
Rp143
g1
(g12
g3
(g13
(g17
S'\xc0x\xdd\x04\xd5\xeb\xc4?'
p144
tp145
Rp146
g13
(g17
S'\x85\xb0\xcdB\xc6\xaes?'
p147
tp148
Rp149
F0.0
F0.1634470247035491
tp150
tp151
Rp152
sg1
(g2
g3
(S'1.00000000'
p153
S'2.00000000'
p154
S'1.000'
p155
S'11'
p156
S'11'
p157
S'250'
p158
tp159
tp160
Rp161
g1
(g12
g3
(g13
(g17
S'1#[$\xf3\xfe\xc4?'
p162
tp163
Rp164
g13
(g17
S'0~#\xd9gDz?'
p165
tp166
Rp167
F0.0
F0.16403044963069527
tp168
tp169
Rp170
sg1
(g2
g3
(S'1.00000000'
p171
S'2.00000000'
p172
S'1.000'
p173
S'6'
p174
g174
S'250'
p175
tp176
tp177
Rp178
g1
(g12
g3
(g13
(g17
S'\xc4\xc7\xbfy3&\xc5?'
p179
tp180
Rp181
g13
(g17
S'\xca\xc0\xa3%\xecFu?'
p182
tp183
Rp184
F0.0
F0.16522830433637925
tp185
tp186
Rp187
sg1
(g2
g3
(S'1.00000000'
p188
S'2.00000000'
p189
S'1.000'
p190
S'4'
p191
g191
S'250'
p192
tp193
tp194
Rp195
g1
(g12
g3
(g13
(g17
S'"~\x1c\xd9K5\xc5?'
p196
tp197
Rp198
g13
(g17
S'e\x84\xd8\xa8J\x15z?'
p199
tp200
Rp201
F0.0
F0.16568897343766859
tp202
tp203
Rp204
sg1
(g2
g3
(S'1.00000000'
p205
S'2.00000000'
p206
S'1.000'
p207
S'19'
p208
S'19'
p209
S'250'
p210
tp211
tp212
Rp213
g1
(g12
g3
(g13
(g17
S'\xb6lqE\xe7\xf5\xc4?'
p214
tp215
Rp216
g13
(g17
S'\xfc\x0bSR\xdbG\x81?'
p217
tp218
Rp219
F0.0
F0.1637543763234583
tp220
tp221
Rp222
sg1
(g2
g3
(S'1.00000000'
p223
S'2.00000000'
p224
S'1.000'
p225
S'13'
p226
S'13'
p227
S'250'
p228
tp229
tp230
Rp231
g1
(g12
g3
(g13
(g17
S'\xba\xb6\xc9,gF\xc5?'
p232
tp233
Rp234
g13
(g17
S'\xa2\x8di\xa8\t\xcf{?'
p235
tp236
Rp237
F0.0
F0.1662110298815856
tp238
tp239
Rp240
sg1
(g2
g3
(S'1.00000000'
p241
S'2.00000000'
p242
S'1.000'
p243
S'2'
p244
g244
S'250'
p245
tp246
tp247
Rp248
g1
(g12
g3
(g13
(g17
S'\xb3\xd4\xc7V*\xbe\xc5?'
p249
tp250
Rp251
g13
(g17
S'\xd6$\x08\xb4\xafDq?'
p252
tp253
Rp254
F0.0
F0.16986588704427205
tp255
tp256
Rp257
sg1
(g2
g3
(S'1.00000000'
p258
S'2.00000000'
p259
S'1.000'
p260
S'16'
p261
S'16'
p262
S'250'
p263
tp264
tp265
Rp266
g1
(g12
g3
(g13
(g17
S'\x82\xc7\x97\xb2\x8e\xc0\xc4?'
p267
tp268
Rp269
g13
(g17
S'~\xc0cI\xf7\x0cp?'
p270
tp271
Rp272
F0.0
F0.16212638588291034
tp273
tp274
Rp275
sg1
(g2
g3
(S'1.00000000'
p276
S'2.00000000'
p277
S'1.000'
p278
S'1'
p279
g279
S'250'
p280
tp281
tp282
Rp283
g1
(g12
g3
(g13
(g17
S'\xd6m&{#\xba\xc5?'
p284
tp285
Rp286
g13
(g17
S'\x10\xbdi\xea\x18\x9at?'
p287
tp288
Rp289
F0.0
F0.16974299920262464
tp290
tp291
Rp292
sg1
(g2
g3
(S'1.00000000'
p293
S'2.00000000'
p294
S'1.000'
p295
S'3'
p296
g296
S'250'
p297
tp298
tp299
Rp300
g1
(g12
g3
(g13
(g17
S'`\xe5\x0c\xf9-\x85\xc4?'
p301
tp302
Rp303
g13
(g17
S'\xc4\xef\xc7_\xe1\x0by?'
p304
tp305
Rp306
F0.0
F0.160314318281773
tp307
tp308
Rp309
sg1
(g2
g3
(S'1.00000000'
p310
S'2.00000000'
p311
S'1.000'
p312
S'8'
p313
g313
S'250'
p314
tp315
tp316
Rp317
g1
(g12
g3
(g13
(g17
S'\x9fd\xbd\xc9&\x1e\xc5?'
p318
tp319
Rp320
g13
(g17
S'\x8b\xb0\xe0\xac\x15\xa2~?'
p321
tp322
Rp323
F0.0
F0.16498265123917563
tp324
tp325
Rp326
sg1
(g2
g3
(S'1.00000000'
p327
S'2.00000000'
p328
S'1.000'
p329
S'20'
p330
S'20'
p331
S'250'
p332
tp333
tp334
Rp335
g1
(g12
g3
(g13
(g17
S'z\x0e\xd8\x0f\xba\xdb\xc4?'
p336
tp337
Rp338
g13
(g17
S'\x01\xfe\xd3qOjr?'
p339
tp340
Rp341
F0.0
F0.16295552991515533
tp342
tp343
Rp344
sg1
(g2
g3
(S'1.00000000'
p345
S'2.00000000'
p346
S'1.000'
p347
S'14'
p348
S'14'
p349
S'250'
p350
tp351
tp352
Rp353
g1
(g12
g3
(g13
(g17
S'\x10\xf8\xa1\x07\xc3\xe0\xc4?'
p354
tp355
Rp356
g13
(g17
S'7\x7f\xe8\x11\xc4Qt?'
p357
tp358
Rp359
F0.0
F0.1631091868657113
tp360
tp361
Rp362
s.