(dp0
ccopy_reg
_reconstructor
p1
(cscripts.archipelago_tuples
Parameters
p2
c__builtin__
tuple
p3
(S'1.00000000'
p4
S'4.00000000'
p5
S'1.000'
p6
S'10'
p7
S'2'
p8
S'300'
p9
tp10
tp11
Rp12
g1
(cscripts.archipelago_tuples
Metrics
p13
g3
(cnumpy.core.multiarray
scalar
p14
(cnumpy
dtype
p15
(S'f8'
p16
I0
I1
tp17
Rp18
(I3
S'<'
p19
NNNI-1
I-1
I0
tp20
bS'\xbf\xac\x93}\xb0\x92\xc5?'
p21
tp22
Rp23
g14
(g18
S'\xa4\xa5\xc8u\t\x8a\x81?'
p24
tp25
Rp26
g14
(g18
S'\x14\xfa\x13\x9a\xec\xbc%?'
p27
tp28
Rp29
g14
(g18
S'\x8f\xfb\x8es\xb1M@?'
p30
tp31
Rp32
F0.16903664871503374
F0.16848382316220817
tp33
tp34
Rp35
sg1
(g2
g3
(S'1.00000000'
p36
S'4.00000000'
p37
S'0.500'
p38
S'10'
p39
g8
S'300'
p40
tp41
tp42
Rp43
g1
(g13
g3
(g14
(g18
S'\xc4\x14\xb7\x9d\t\x0e\xc5?'
p44
tp45
Rp46
g14
(g18
S'\n\xfdV\xde\x98\xa6~?'
p47
tp48
Rp49
g14
(g18
S'\x00\x00\x00\x00\x00\x00\x00\x00'
p50
tp51
Rp52
g14
(g18
S'\x00\x00\x00\x00\x00\x00\x00\x00'
p53
tp54
Rp55
F0.16449089241920067
F0.16449089241920067
tp56
tp57
Rp58
sg1
(g2
g3
(S'1.00000000'
p59
S'4.00000000'
p60
S'0.100'
p61
S'10'
p62
g8
S'300'
p63
tp64
tp65
Rp66
g1
(g13
g3
(g14
(g18
S'\xcc !\x8f\x8f`\xc5?'
p67
tp68
Rp69
g14
(g18
S'\x03\xe2Q\x8c\xac?u?'
p70
tp71
Rp72
g14
(g18
S'2\xda\xb4\x93L\x17-?'
p73
tp74
Rp75
g14
(g18
S'\x9f\x11\xa1\xa0\xf4:>?'
p76
tp77
Rp78
F0.16743927650820495
F0.16670217577110424
tp79
tp80
Rp81
s.