(dp0
ccopy_reg
_reconstructor
p1
(cscripts.archipelago_tuples
Parameters
p2
c__builtin__
tuple
p3
(S'1.00000000'
p4
S'0.25000000'
p5
S'1.000'
p6
S'30'
p7
S'4'
p8
S'61'
p9
tp10
tp11
Rp12
g1
(cscripts.archipelago_tuples
Metrics
p13
g3
(F0.17219202898550723
F0.03333189067257587
F0.23179347826086955
F0.1391304347826087
tp14
tp15
Rp16
sg1
(g2
g3
(S'1.00000000'
p17
S'0.25000000'
p18
S'1.000'
p19
S'30'
p20
S'7'
p21
S'61'
p22
tp23
tp24
Rp25
g1
(g13
g3
(F0.21411231884057974
F0.04250292124745582
F0.32771739130434785
F0.14429347826086958
tp26
tp27
Rp28
sg1
(g2
g3
(S'1.00000000'
p29
S'0.25000000'
p30
S'1.000'
p31
S'30'
p32
S'3'
p33
S'61'
p34
tp35
tp36
Rp37
g1
(g13
g3
(F0.1727717391304348
F0.02625584511299399
F0.23342391304347826
F0.1345108695652174
tp38
tp39
Rp40
sg1
(g2
g3
(S'1.00000000'
p41
S'0.25000000'
p42
S'1.000'
p43
S'30'
p44
S'6'
p45
S'61'
p46
tp47
tp48
Rp49
g1
(g13
g3
(F0.15942028985507245
F0.01310397114470126
F0.18396739130434783
F0.14320652173913045
tp50
tp51
Rp52
sg1
(g2
g3
(S'1.00000000'
p53
S'0.25000000'
p54
S'1.000'
p55
S'30'
p56
S'9'
p57
S'61'
p58
tp59
tp60
Rp61
g1
(g13
g3
(F0.18938405797101449
F0.07135176526898583
F0.3690217391304348
F0.1328804347826087
tp62
tp63
Rp64
sg1
(g2
g3
(S'1.00000000'
p65
S'0.25000000'
p66
S'1.000'
p67
S'30'
p68
S'2'
p69
S'61'
p70
tp71
tp72
Rp73
g1
(g13
g3
(F0.1386684782608696
F0.004932602754166819
F0.1470108695652174
F0.1298913043478261
tp74
tp75
Rp76
sg1
(g2
g3
(S'1.00000000'
p77
S'0.25000000'
p78
S'1.000'
p79
S'30'
p80
S'10'
p81
S'61'
p82
tp83
tp84
Rp85
g1
(g13
g3
(F0.18911231884057972
F0.045755506965234616
F0.2932065217391304
F0.14565217391304347
tp86
tp87
Rp88
sg1
(g2
g3
(S'1.00000000'
p89
S'0.25000000'
p90
S'1.000'
p91
S'30'
p92
S'5'
p93
S'61'
p94
tp95
tp96
Rp97
g1
(g13
g3
(F0.24942028985507247
F0.027951948695271952
F0.29483695652173914
F0.15625
tp98
tp99
Rp100
sg1
(g2
g3
(S'1.00000000'
p101
S'0.25000000'
p102
S'1.000'
p103
S'30'
p104
S'1'
p105
S'61'
p106
tp107
tp108
Rp109
g1
(g13
g3
(F0.15378623188405796
F0.008466386876941494
F0.1654891304347826
F0.14266304347826086
tp110
tp111
Rp112
sg1
(g2
g3
(S'1.00000000'
p113
S'0.25000000'
p114
S'1.000'
p115
S'30'
p116
S'8'
p117
S'61'
p118
tp119
tp120
Rp121
g1
(g13
g3
(F0.3201086956521739
F0.01654836856630505
F0.3654891304347826
F0.30978260869565216
tp122
tp123
Rp124
s.