(dp0
ccopy_reg
_reconstructor
p1
(cscripts.archipelago_tuples
Parameters
p2
c__builtin__
tuple
p3
(S'1.00000000'
p4
S'0.12500000'
p5
S'1.000'
p6
S'10'
p7
S'10'
p8
S'250'
p9
tp10
tp11
Rp12
g1
(cscripts.archipelago_tuples
Metrics
p13
g3
(cnumpy.core.multiarray
scalar
p14
(cnumpy
dtype
p15
(S'f8'
p16
I0
I1
tp17
Rp18
(I3
S'<'
p19
NNNI-1
I-1
I0
tp20
bS'4tE\x9c\x1f\x07\xc6?'
p21
tp22
Rp23
g14
(g18
S'\xab\xe8\x95\xe2C\x06\x9a?'
p24
tp25
Rp26
g14
(g18
S"\xd2'\xd3\x9b\x1eBy?"
p27
tp28
Rp29
g14
(g18
S'2\x17\xc38\xe2\xb1n?'
p30
tp31
Rp32
F0.17989130434782608
F0.15869565217391304
tp33
tp34
Rp35
sg1
(g2
g3
(S'1.00000000'
p36
S'4.00000000'
p37
S'1.000'
p38
S'10'
p39
S'10'
p40
S'250'
p41
tp42
tp43
Rp44
g1
(g13
g3
(g14
(g18
S'\x16q~\x1c@\x90\xd8?'
p45
tp46
Rp47
g14
(g18
S'\x96\x9f\xe8$\xd1:\x9c?'
p48
tp49
Rp50
g14
(g18
S'\x89\xba\xa8"5n\x92?'
p51
tp52
Rp53
g14
(g18
S'\x9b+\xf8\xcb\xf4Ax?'
p54
tp55
Rp56
F0.3964673913043478
F0.33994565217391304
tp57
tp58
Rp59
sg1
(g2
g3
(S'1.00000000'
p60
S'16.00000000'
p61
S'1.000'
p62
S'10'
p63
S'10'
p64
S'250'
p65
tp66
tp67
Rp68
g1
(g13
g3
(g14
(g18
S'h\xec\xd3\xdc\xf0]\xd9?'
p69
tp70
Rp71
g14
(g18
S'\xe91WEW\x07\x94?'
p72
tp73
Rp74
g14
(g18
S'\x15\x81\xa2\xad\x06\xcf1?'
p75
tp76
Rp77
g14
(g18
S'g\xf8\xdb\x90\x9c?B?'
p78
tp79
Rp80
F0.3964673913043478
F0.39565217391304347
tp81
tp82
Rp83
sg1
(g2
g3
(S'1.00000000'
p84
S'1.00000000'
p85
S'1.000'
p86
S'10'
p87
S'10'
p88
S'250'
p89
tp90
tp91
Rp92
g1
(g13
g3
(g14
(g18
S'\xd8\xa3p=\n\xd7\xcd?'
p93
tp94
Rp95
g14
(g18
S'\xf4\xde\xa7\xb3\x94q\x8f?'
p96
tp97
Rp98
g14
(g18
S'V\x9a&\x92\xcbI\x91?'
p99
tp100
Rp101
g14
(g18
S'\xf3g*\x06\x13]r?'
p102
tp103
Rp104
F0.24673913043478263
F0.19293478260869568
tp105
tp106
Rp107
sg1
(g2
g3
(S'1.00000000'
p108
S'0.50000000'
p109
S'1.000'
p110
S'10'
p111
S'10'
p112
S'250'
p113
tp114
tp115
Rp116
g1
(g13
g3
(g14
(g18
S'\xfa\xb2\x12\xaa\xfe<\xc9?'
p117
tp118
Rp119
g14
(g18
S'\xb0\xfa;\xe8\xd9R\x84?'
p120
tp121
Rp122
g14
(g18
S'\xe0\x0by\xf0\xd9\xff\x87?'
p123
tp124
Rp125
g14
(g18
S'T\xdfb\t\xb7\x1ch?'
p126
tp127
Rp128
F0.20815217391304347
F0.16657608695652176
tp129
tp130
Rp131
sg1
(g2
g3
(S'1.00000000'
p132
S'128.00000000'
p133
S'1.000'
p134
S'10'
p135
S'10'
p136
S'250'
p137
tp138
tp139
Rp140
g1
(g13
g3
(g14
(g18
S'vI\xe5\xc3\xb8_\xd9?'
p141
tp142
Rp143
g14
(g18
S'\x16z\xce\xa9v\xf3\x94?'
p144
tp145
Rp146
g14
(g18
S'\x00\x00\x00\x00\x00\x00\x00\x00'
p147
tp148
Rp149
g14
(g18
S'\x00\x00\x00\x00\x00\x00\x00\x00'
p150
tp151
Rp152
F0.3964673913043478
F0.3964673913043478
tp153
tp154
Rp155
sg1
(g2
g3
(S'1.00000000'
p156
S'8.00000000'
p157
S'1.000'
p158
S'10'
p159
S'10'
p160
S'250'
p161
tp162
tp163
Rp164
g1
(g13
g3
(g14
(g18
S'tE\x9c\x1f\x07\x10\xd9?'
p165
tp166
Rp167
g14
(g18
S'gX\xa8\xaed\xa3\xa1?'
p168
tp169
Rp170
g14
(g18
S'\x8c\xfc\x853&\xe3\x87?'
p171
tp172
Rp173
g14
(g18
S'eO\x12\xa4\x16^|?'
p174
tp175
Rp176
F0.39891304347826084
F0.35842391304347826
tp177
tp178
Rp179
sg1
(g2
g3
(S'1.00000000'
p180
S'0.25000000'
p181
S'1.000'
p182
S'10'
p183
S'10'
p184
S'250'
p185
tp186
tp187
Rp188
g1
(g13
g3
(g14
(g18
S'\xbb\xe5\x04\xcb\xc8\x83\xc6?'
p189
tp190
Rp191
g14
(g18
S'\x82\xb9MB\x96\xb3\x95?'
p192
tp193
Rp194
g14
(g18
S'p\xfaM\xe7n\xc2\x8a?'
p195
tp196
Rp197
g14
(g18
S'O\xde<{*\x8aw?'
p198
tp199
Rp200
F0.19130434782608693
F0.15217391304347824
tp201
tp202
Rp203
sg1
(g2
g3
(S'1.00000000'
p204
S'0.00390625'
p205
S'1.000'
p206
S'10'
p207
S'10'
p208
S'250'
p209
tp210
tp211
Rp212
g1
(g13
g3
(g14
(g18
S'\xeb\xd3\xdc\xf0]\x93\xd6?'
p213
tp214
Rp215
g14
(g18
S'\x04<X\xc6yp\xc8?'
p216
tp217
Rp218
g14
(g18
S'\x18{~\xac\xe7\x10\x83?'
p219
tp220
Rp221
g14
(g18
S'\x81\xd8\xe8.v\n\x83?'
p222
tp223
Rp224
F0.3711956521739131
F0.33804347826086956
tp225
tp226
Rp227
sg1
(g2
g3
(S'1.00000000'
p228
S'32.00000000'
p229
S'1.000'
p230
S'10'
p231
S'10'
p232
S'250'
p233
tp234
tp235
Rp236
g1
(g13
g3
(g14
(g18
S'vI\xe5\xc3\xb8_\xd9?'
p237
tp238
Rp239
g14
(g18
S'\x18t\xca\xbfA\x87\x9a?'
p240
tp241
Rp242
g14
(g18
S'\x00\x00\x00\x00\x00\x00\x00\x00'
p243
tp244
Rp245
g14
(g18
S'\x00\x00\x00\x00\x00\x00\x00\x00'
p246
tp247
Rp248
F0.3964673913043478
F0.3964673913043478
tp249
tp250
Rp251
sg1
(g2
g3
(S'1.00000000'
p252
S'64.00000000'
p253
S'1.000'
p254
S'10'
p255
S'10'
p256
S'250'
p257
tp258
tp259
Rp260
g1
(g13
g3
(g14
(g18
S'vI\xe5\xc3\xb8_\xd9?'
p261
tp262
Rp263
g14
(g18
S'"\xb2\xdb"g\xff\x99?'
p264
tp265
Rp266
g14
(g18
S'\x00\x00\x00\x00\x00\x00\x00\x00'
p267
tp268
Rp269
g14
(g18
S'\x00\x00\x00\x00\x00\x00\x00\x00'
p270
tp271
Rp272
F0.3964673913043478
F0.3964673913043478
tp273
tp274
Rp275
sg1
(g2
g3
(S'1.00000000'
p276
S'0.06250000'
p277
S'1.000'
p278
S'10'
p279
S'10'
p280
S'250'
p281
tp282
tp283
Rp284
g1
(g13
g3
(g14
(g18
S'\xee\x96\x13,#\x0f\xc6?'
p285
tp286
Rp287
g14
(g18
S'\x1f=\x18\xc3\xbfG\x96?'
p288
tp289
Rp290
g14
(g18
S'+\xa2|\xf9\x03y\x83?'
p291
tp292
Rp293
g14
(g18
S'Rbi\x97\xf0\x8fs?'
p294
tp295
Rp296
F0.18913043478260866
F0.15434782608695652
tp297
tp298
Rp299
sg1
(g2
g3
(S'1.00000000'
p300
S'0.00781250'
p301
S'1.000'
p302
S'10'
p303
S'10'
p304
S'250'
p305
tp306
tp307
Rp308
g1
(g13
g3
(g14
(g18
S'\xd8f\xa7x\xcfR\xd1?'
p309
tp310
Rp311
g14
(g18
S'\xc1K\x18O&V\xc2?'
p312
tp313
Rp314
g14
(g18
S'\x82x\xf4K|\x06\x86?'
p315
tp316
Rp317
g14
(g18
S'\xf6\xda<T\x9c\xbf\x84?'
p318
tp319
Rp320
F0.2918478260869565
F0.25570652173913044
tp321
tp322
Rp323
sg1
(g2
g3
(S'1.00000000'
p324
S'2.00000000'
p325
S'1.000'
p326
S'10'
p327
S'10'
p328
S'250'
p329
tp330
tp331
Rp332
g1
(g13
g3
(g14
(g18
S'\xee\xd7%\x95\x0f\xe3\xd2?'
p333
tp334
Rp335
g14
(g18
S'\x0b\x9c*L\xac\x04\xa4?'
p336
tp337
Rp338
g14
(g18
S'\xa2\x02MFJ\xef\xa1?'
p339
tp340
Rp341
g14
(g18
S'*NY6n\xa0|?'
p342
tp343
Rp344
F0.32418478260869565
F0.2236413043478261
tp345
tp346
Rp347
sg1
(g2
g3
(S'1.00000000'
p348
S'0.03125000'
p349
S'1.000'
p350
S'10'
p351
S'10'
p352
S'250'
p353
tp354
tp355
Rp356
g1
(g13
g3
(g14
(g18
S'\xcdJ\xa8\xfa\xf3$\xc7?'
p357
tp358
Rp359
g14
(g18
S'2\xc6\x16\x1c3#\xa5?'
p360
tp361
Rp362
g14
(g18
S'\xb9\xf6!\xb6\nC\x85?'
p363
tp364
Rp365
g14
(g18
S'`P\xdb\xea\x98f\x84?'
p366
tp367
Rp368
F0.19456521739130433
F0.16467391304347828
tp369
tp370
Rp371
sg1
(g2
g3
(S'1.00000000'
p372
S'0.01562500'
p373
S'1.000'
p374
S'10'
p375
S'10'
p376
S'250'
p377
tp378
tp379
Rp380
g1
(g13
g3
(g14
(g18
S']\x93\x0b\x9a\xda\xab\xcc?'
p381
tp382
Rp383
g14
(g18
S'gH\xc3\x9d\x80Q\xbd?'
p384
tp385
Rp386
g14
(g18
S'\xaa\x19\x16\xbc\xc4y|?'
p387
tp388
Rp389
g14
(g18
S'D\x05 \xf6\xf9\xb3x?'
p390
tp391
Rp392
F0.23505434782608697
F0.21277173913043476
tp393
tp394
Rp395
s.