(dp0
ccopy_reg
_reconstructor
p1
(cscripts.archipelago_tuples
Parameters
p2
c__builtin__
tuple
p3
(S'1.00000000'
p4
S'0.25000000'
p5
S'1.000'
p6
S'5'
p7
g7
S'150'
p8
tp9
tp10
Rp11
g1
(cscripts.archipelago_tuples
Metrics
p12
g3
(cnumpy.core.multiarray
scalar
p13
(cnumpy
dtype
p14
(S'f8'
p15
I0
I1
tp16
Rp17
(I3
S'<'
p18
NNNI-1
I-1
I0
tp19
bS'\xab\x02\x86mv\x8a\xc7?'
p20
tp21
Rp22
g13
(g17
S'U\xd9\x8b\x0fB\xa0\x95?'
p23
tp24
Rp25
g13
(g17
S'm\xe1\x82.\x90h\x89?'
p26
tp27
Rp28
g13
(g17
S'YL46.\x95\x7f?'
p29
tp30
Rp31
F0.19891304347826086
F0.16793478260869565
tp32
tp33
Rp34
sg1
(g2
g3
(S'1.00000000'
p35
S'0.25000000'
p36
S'1.000'
p37
S'10'
p38
g7
S'150'
p39
tp40
tp41
Rp42
g1
(g12
g3
(g13
(g17
S'\xa2\xee\x188\xfe\xfb\xcc?'
p43
tp44
Rp45
g13
(g17
S'\xea\xf9/\xe0!_\x97?'
p46
tp47
Rp48
g13
(g17
S'\x98\x9f\xf35\x05O\x90?'
p49
tp50
Rp51
g13
(g17
S'\xad\x91\xb5\x86^\x84o?'
p52
tp53
Rp54
F0.24239130434782608
F0.19673913043478258
tp55
tp56
Rp57
sg1
(g2
g3
(S'1.00000000'
p58
S'0.25000000'
p59
S'1.000'
p60
S'15'
p61
g7
S'150'
p62
tp63
tp64
Rp65
g1
(g12
g3
(g13
(g17
S'\x03\x1b\x12\xfe\x90[\xcf?'
p66
tp67
Rp68
g13
(g17
S'\xa2\x07"\x1c+\x95\x9f?'
p69
tp70
Rp71
g13
(g17
S'&\xea\x05yG\xde\x86?'
p72
tp73
Rp74
g13
(g17
S'o\xc8\xc4\x81D\x8ap?'
p75
tp76
Rp77
F0.2616847826086957
F0.2304347826086956
tp78
tp79
Rp80
sg1
(g2
g3
(S'1.00000000'
p81
S'0.25000000'
p82
S'1.000'
p83
S'20'
p84
g7
S'150'
p85
tp86
tp87
Rp88
g1
(g12
g3
(g13
(g17
S'\xd2\x97\x95P\xf5\xe7\xcb?'
p89
tp90
Rp91
g13
(g17
S"T\xb5\xd98'\xfd\x9f?"
p92
tp93
Rp94
g13
(g17
S'\x0e\xcb\xf6\x9e\xb5\x0e\x8e?'
p95
tp96
Rp97
g13
(g17
S'\xbdA8\xa8\xa59\x86?'
p98
tp99
Rp100
F0.23532608695652174
F0.19266304347826085
tp101
tp102
Rp103
s.