(dp0
ccopy_reg
_reconstructor
p1
(cscripts.archipelago_tuples
Parameters
p2
c__builtin__
tuple
p3
(S'1.00000000'
p4
S'0.25000000'
p5
S'1.000'
p6
S'7'
p7
S'1'
p8
S'300'
p9
tp10
tp11
Rp12
g1
(cscripts.archipelago_tuples
Metrics
p13
g3
(cnumpy.core.multiarray
scalar
p14
(cnumpy
dtype
p15
(S'f8'
p16
I0
I1
tp17
Rp18
(I3
S'<'
p19
NNNI-1
I-1
I0
tp20
bS'5x\x8e@\xd1V\xc7?'
p21
tp22
Rp23
g14
(g18
S'I\xe5\xc3\xb8_\x97\x84?'
p24
tp25
Rp26
F0.0
F0.18233695652173912
tp27
tp28
Rp29
sg1
(g2
g3
(S'1.00000000'
p30
S'0.25000000'
p31
S'1.000'
p32
S'5'
p33
g8
S'300'
p34
tp35
tp36
Rp37
g1
(g13
g3
(g14
(g18
S'<G\xa0h\xab\xc1\xc7?'
p38
tp39
Rp40
g14
(g18
S'\xe3\x8dt#\xfd\xac\x94?'
p41
tp42
Rp43
F0.0
F0.18559782608695652
tp44
tp45
Rp46
sg1
(g2
g3
(S'1.00000000'
p47
S'0.25000000'
p48
S'1.000'
p49
S'10'
p50
g8
S'300'
p51
tp52
tp53
Rp54
g1
(g13
g3
(g14
(g18
S'\xbc\xa4\xf2a\xdc\xaf\xc7?'
p55
tp56
Rp57
g14
(g18
S'\xf9\x84\xfd\xc0\\\x8a\x94?'
p58
tp59
Rp60
F0.0
F0.18505434782608698
tp61
tp62
Rp63
sg1
(g2
g3
(S'1.00000000'
p64
S'0.25000000'
p65
S'1.000'
p66
S'9'
p67
g8
S'300'
p68
tp69
tp70
Rp71
g1
(g13
g3
(g14
(g18
S'\xab\xc1s\x04\x8a\xb6\xc6?'
p72
tp73
Rp74
g14
(g18
S'g\xbc\x97q\x15\x03\x9f?'
p75
tp76
Rp77
F0.0
F0.17744565217391303
tp78
tp79
Rp80
sg1
(g2
g3
(S'1.00000000'
p81
S'0.25000000'
p82
S'1.000'
p83
S'3'
p84
g8
S'300'
p85
tp86
tp87
Rp88
g1
(g13
g3
(g14
(g18
S'r\xbf.\xa9|\x18\xc7?'
p89
tp90
Rp91
g14
(g18
S'g\x80\x1c(\x03t\x95?'
p92
tp93
Rp94
F0.0
F0.18043478260869567
tp95
tp96
Rp97
sg1
(g2
g3
(S'1.00000000'
p98
S'0.25000000'
p99
S'1.000'
p100
S'8'
p101
g8
S'300'
p102
tp103
tp104
Rp105
g1
(g13
g3
(g14
(g18
S'Noz\xd3\x9b\xde\xc8?'
p106
tp107
Rp108
g14
(g18
S'\xc2\x7f\xf9\x05D\xf5\x91?'
p109
tp110
Rp111
F0.0
F0.19429347826086957
tp112
tp113
Rp114
sg1
(g2
g3
(S'1.00000000'
p115
S'0.25000000'
p116
S'1.000'
p117
S'2'
p118
g8
S'300'
p119
tp120
tp121
Rp122
g1
(g13
g3
(g14
(g18
S'\xf90\xee\xd7%\x95\xc7?'
p123
tp124
Rp125
g14
(g18
S'.N\xc6\x88\xd0\x9d\x92?'
p126
tp127
Rp128
F0.0
F0.1842391304347826
tp129
tp130
Rp131
sg1
(g2
g3
(S'1.00000000'
p132
S'0.25000000'
p133
S'1.000'
p134
g8
g8
S'300'
p135
tp136
tp137
Rp138
g1
(g13
g3
(g14
(g18
S'\x9e#P\xb4\xd5\xe0\xc9?'
p139
tp140
Rp141
g14
(g18
S'\x01\x14\xa1\x98\xa7;\x96?'
p142
tp143
Rp144
F0.0
F0.20217391304347826
tp145
tp146
Rp147
sg1
(g2
g3
(S'1.00000000'
p148
S'0.25000000'
p149
S'1.000'
p150
S'6'
p151
g8
S'300'
p152
tp153
tp154
Rp155
g1
(g13
g3
(g14
(g18
S'C\x16\xb2\x90\x85,\xc8?'
p156
tp157
Rp158
g14
(g18
S'!\x14\x9c\xf8\x8d\xb2\x91?'
p159
tp160
Rp161
F0.0
F0.18885869565217392
tp162
tp163
Rp164
sg1
(g2
g3
(S'1.00000000'
p165
S'0.25000000'
p166
S'1.000'
p167
S'4'
p168
g8
S'300'
p169
tp170
tp171
Rp172
g1
(g13
g3
(g14
(g18
S'\xd1V\x83\xe7\x08\x14\xc8?'
p173
tp174
Rp175
g14
(g18
S'\x04Q\xa7\x88\x93\xa0\x90?'
p176
tp177
Rp178
F0.00011766649507940795
F0.18831521739130436
tp179
tp180
Rp181
s.