(dp0
ccopy_reg
_reconstructor
p1
(cscripts.archipelago_tuples
Parameters
p2
c__builtin__
tuple
p3
(S'0.25000000'
p4
S'0.25000000'
p5
S'0.250'
p6
S'10'
p7
S'5'
p8
tp9
tp10
Rp11
g1
(cscripts.archipelago_tuples
Metrics
p12
g3
(F0.16845779220779217
F0.035975799876190526
F0.23746753246753247
F0.12327922077922078
tp13
tp14
Rp15
sg1
(g2
g3
(S'0.50000000'
p16
S'0.25000000'
p17
S'0.500'
p18
S'10'
p19
g8
tp20
tp21
Rp22
g1
(g12
g3
(F0.14714610389610389
F0.01911892711196019
F0.19029220779220782
F0.12685064935064932
tp23
tp24
Rp25
sg1
(g2
g3
(S'0.12500000'
p26
S'0.25000000'
p27
S'0.125'
p28
S'10'
p29
g8
tp30
tp31
Rp32
g1
(g12
g3
(F0.2109448051948052
F0.0739222046324883
F0.31327922077922077
F0.12133116883116882
tp33
tp34
Rp35
sg1
(g2
g3
(S'0.03125000'
p36
S'0.25000000'
p37
S'0.031'
p38
S'10'
p39
g8
tp40
tp41
Rp42
g1
(g12
g3
(F0.23359415584415588
F0.10424316160600948
F0.4093181818181818
F0.1305194805194805
tp43
tp44
Rp45
sg1
(g2
g3
(S'0.06250000'
p46
S'0.25000000'
p47
S'0.063'
p48
S'10'
p49
g8
tp50
tp51
Rp52
g1
(g12
g3
(F0.2344902597402597
F0.11102045232577304
F0.3806168831168831
F0.12133116883116883
tp53
tp54
Rp55
sg1
(g2
g3
(S'1.00000000'
p56
S'0.25000000'
p57
S'1.000'
p58
S'10'
p59
g8
tp60
tp61
Rp62
g1
(g12
g3
(F0.15839610389610387
F0.033093623816766546
F0.2338311688311688
F0.12503246753246752
tp63
tp64
Rp65
sg1
(g2
g3
(S'0.01562500'
p66
S'0.25000000'
p67
S'0.016'
p68
S'10'
p69
g8
tp70
tp71
Rp72
g1
(g12
g3
(F0.2731071428571429
F0.1431225431477873
F0.45964285714285713
F0.1267857142857143
tp73
tp74
Rp75
sg1
(g2
g3
(S'2.00000000'
p76
S'0.25000000'
p77
S'2.000'
p78
S'10'
p79
g8
tp80
tp81
Rp82
g1
(g12
g3
(F0.15319805194805194
F0.021585182160596
F0.19012987012987012
F0.11584415584415583
tp83
tp84
Rp85
s.