(dp0
ccopy_reg
_reconstructor
p1
(cscripts.archipelago_tuples
Parameters
p2
c__builtin__
tuple
p3
(S'0.10000000'
p4
S'0.00390625'
p5
S'0.003'
p6
S'50'
p7
S'50'
p8
tp9
tp10
Rp11
g1
(cscripts.archipelago_tuples
Metrics
p12
g3
(F0.44444565217391296
F0.07834693879855412
F0.489945652173913
F0.15815217391304348
tp13
tp14
Rp15
sg1
(g2
g3
(S'0.10000000'
p16
S'0.00390625'
p17
S'0.006'
p18
S'50'
p19
S'50'
p20
tp21
tp22
Rp23
g1
(g12
g3
(F0.3951086956521739
F0.0797161090878047
F0.4567934782608695
F0.14429347826086955
tp24
tp25
Rp26
sg1
(g2
g3
(S'0.10000000'
p27
S'0.00390625'
p28
S'0.013'
p29
S'50'
p30
S'50'
p31
tp32
tp33
Rp34
g1
(g12
g3
(F0.33294565217391303
F0.05472493864268008
F0.40570652173913035
F0.15407608695652172
tp35
tp36
Rp37
sg1
(g2
g3
(S'0.10000000'
p38
S'0.00390625'
p39
S'0.100'
p40
S'50'
p41
S'50'
p42
tp43
tp44
Rp45
g1
(g12
g3
(F0.36790760869565214
F0.03748887167568664
F0.4133152173913044
F0.17445652173913045
tp46
tp47
Rp48
sg1
(g2
g3
(S'0.10000000'
p49
S'0.00390625'
p50
S'0.050'
p51
S'50'
p52
S'50'
p53
tp54
tp55
Rp56
g1
(g12
g3
(F0.3345706521739131
F0.05895680442463791
F0.39755434782608695
F0.1532608695652174
tp57
tp58
Rp59
sg1
(g2
g3
(S'0.10000000'
p60
S'0.00390625'
p61
S'0.025'
p62
S'50'
p63
S'50'
p64
tp65
tp66
Rp67
g1
(g12
g3
(F0.2968152173913043
F0.038327869574390404
F0.36222826086956517
F0.14945652173913043
tp68
tp69
Rp70
s.