(dp0
ccopy_reg
_reconstructor
p1
(cscripts.archipelago_tuples
Parameters
p2
c__builtin__
tuple
p3
(S'1024.00000000'
p4
S'0.00390625'
p5
S'1024.000'
p6
S'300'
p7
S'60'
p8
tp9
tp10
Rp11
g1
(cscripts.archipelago_tuples
Metrics
p12
g3
(F0.32323097826086966
F0.1081698290659611
F0.6054347826086957
F0.15271739130434783
tp13
tp14
Rp15
sg1
(g2
g3
(S'1024.00000000'
p16
S'0.00390625'
p17
S'1024.000'
p18
S'300'
p19
S'120'
p20
tp21
tp22
Rp23
g1
(g12
g3
(F0.3397626811594202
F0.09954400272894727
F0.6032608695652173
F0.16385869565217392
tp24
tp25
Rp26
sg1
(g2
g3
(S'1024.00000000'
p27
S'0.00390625'
p28
S'1024.000'
p29
S'300'
p30
S'210'
p31
tp32
tp33
Rp34
g1
(g12
g3
(F0.3237626811594203
F0.1070973953036832
F0.6040760869565217
F0.15353260869565216
tp35
tp36
Rp37
sg1
(g2
g3
(S'1024.00000000'
p38
S'0.00390625'
p39
S'1024.000'
p40
S'300'
p41
S'270'
p42
tp43
tp44
Rp45
g1
(g12
g3
(F0.32484692028985507
F0.09916019833997783
F0.6035326086956523
F0.15190217391304345
tp46
tp47
Rp48
sg1
(g2
g3
(S'1024.00000000'
p49
S'0.00390625'
p50
S'1024.000'
p51
S'300'
p52
S'150'
p53
tp54
tp55
Rp56
g1
(g12
g3
(F0.3433568840579711
F0.10948971175614146
F0.6051630434782609
F0.14157608695652174
tp57
tp58
Rp59
sg1
(g2
g3
(S'1024.00000000'
p60
S'0.00390625'
p61
S'1024.000'
p62
S'300'
p63
S'300'
p64
tp65
tp66
Rp67
g1
(g12
g3
(F0.31773188405797104
F0.1055884932915044
F0.6046195652173914
F0.1502717391304348
tp68
tp69
Rp70
sg1
(g2
g3
(S'1024.00000000'
p71
S'0.00390625'
p72
S'1024.000'
p73
S'300'
p74
S'30'
p75
tp76
tp77
Rp78
g1
(g12
g3
(F0.32184692028985507
F0.1155704926314333
F0.6038043478260869
F0.16086956521739132
tp79
tp80
Rp81
sg1
(g2
g3
(S'1024.00000000'
p82
S'0.00390625'
p83
S'1024.000'
p84
S'300'
p85
S'180'
p86
tp87
tp88
Rp89
g1
(g12
g3
(F0.33155887681159424
F0.10397541061301183
F0.6051630434782609
F0.15027173913043482
tp90
tp91
Rp92
sg1
(g2
g3
(S'1024.00000000'
p93
S'0.00390625'
p94
S'1024.000'
p95
S'300'
p96
S'90'
p97
tp98
tp99
Rp100
g1
(g12
g3
(F0.3237373188405797
F0.09905009358487675
F0.6160326086956522
F0.152445652173913
tp101
tp102
Rp103
sg1
(g2
g3
(S'1024.00000000'
p104
S'0.00390625'
p105
S'1024.000'
p106
S'300'
p107
S'240'
p108
tp109
tp110
Rp111
g1
(g12
g3
(F0.326268115942029
F0.10321562547584344
F0.6035326086956522
F0.16630434782608694
tp112
tp113
Rp114
s.