(dp0
ccopy_reg
_reconstructor
p1
(cscripts.archipelago_tuples
Parameters
p2
c__builtin__
tuple
p3
(S'1024.00000000'
p4
S'0.00390625'
p5
S'1024.000'
p6
S'45'
p7
S'5'
p8
tp9
tp10
Rp11
g1
(cscripts.archipelago_tuples
Metrics
p12
g3
(F0.16783816425120773
F0.0236859246985333
F0.24429347826086958
F0.12309782608695652
tp13
tp14
Rp15
sg1
(g2
g3
(S'1024.00000000'
p16
S'0.00390625'
p17
S'1024.000'
p18
S'30'
p19
g8
tp20
tp21
Rp22
g1
(g12
g3
(F0.16629528985507244
F0.018395270415481623
F0.20543478260869566
F0.13722826086956522
tp23
tp24
Rp25
sg1
(g2
g3
(S'1024.00000000'
p26
S'0.00390625'
p27
S'1024.000'
p28
S'10'
p29
g8
tp30
tp31
Rp32
g1
(g12
g3
(F0.17771739130434783
F0.02823327431302048
F0.22717391304347828
F0.1361413043478261
tp33
tp34
Rp35
sg1
(g2
g3
(S'1024.00000000'
p36
S'0.00390625'
p37
S'1024.000'
p38
g8
g8
tp39
tp40
Rp41
g1
(g12
g3
(F0.17124999999999996
F0.012440510185358354
F0.1877717391304348
F0.15380434782608693
tp42
tp43
Rp44
sg1
(g2
g3
(S'1024.00000000'
p45
S'0.00390625'
p46
S'1024.000'
p47
S'40'
p48
g8
tp49
tp50
Rp51
g1
(g12
g3
(F0.16942255434782608
F0.021252880617336618
F0.23125
F0.13206521739130433
tp52
tp53
Rp54
sg1
(g2
g3
(S'1024.00000000'
p55
S'0.00390625'
p56
S'1024.000'
p57
S'25'
p58
g8
tp59
tp60
Rp61
g1
(g12
g3
(F0.1680108695652174
F0.019271838952127772
F0.2206521739130435
F0.1375
tp62
tp63
Rp64
sg1
(g2
g3
(S'1024.00000000'
p65
S'0.00390625'
p66
S'1024.000'
p67
S'50'
p68
g8
tp69
tp70
Rp71
g1
(g12
g3
(F0.16583152173913046
F0.02219792034137564
F0.2323369565217391
F0.12527173913043477
tp72
tp73
Rp74
sg1
(g2
g3
(S'1024.00000000'
p75
S'0.00390625'
p76
S'1024.000'
p77
S'35'
p78
g8
tp79
tp80
Rp81
g1
(g12
g3
(F0.17025621118012424
F0.02430884895528791
F0.23831521739130435
F0.1293478260869565
tp82
tp83
Rp84
sg1
(g2
g3
(S'1024.00000000'
p85
S'0.00390625'
p86
S'1024.000'
p87
S'20'
p88
g8
tp89
tp90
Rp91
g1
(g12
g3
(F0.17032608695652174
F0.024272122972656147
F0.23070652173913042
F0.13722826086956524
tp92
tp93
Rp94
sg1
(g2
g3
(S'1024.00000000'
p95
S'0.00390625'
p96
S'1024.000'
p97
S'15'
p98
g8
tp99
tp100
Rp101
g1
(g12
g3
(F0.17402173913043478
F0.01731786419167316
F0.20679347826086963
F0.14565217391304347
tp102
tp103
Rp104
s.