(dp0
ccopy_reg
_reconstructor
p1
(cscripts.archipelago_tuples
Parameters
p2
c__builtin__
tuple
p3
(S'128.00000000'
p4
S'0.00390625'
p5
S'128.000'
p6
S'50'
p7
S'50'
p8
tp9
tp10
Rp11
g1
(cscripts.archipelago_tuples
Metrics
p12
g3
(F0.16117391304347825
F0.016187857758891
F0.21956521739130436
F0.13233695652173913
tp13
tp14
Rp15
sg1
(g2
g3
(S'16.00000000'
p16
S'0.00390625'
p17
S'16.000'
p18
S'50'
p19
S'50'
p20
tp21
tp22
Rp23
g1
(g12
g3
(F0.16574999999999998
F0.014228438142042443
F0.20896739130434785
F0.13668478260869565
tp24
tp25
Rp26
sg1
(g2
g3
(S'0.00781250'
p27
S'0.00390625'
p28
S'0.008'
p29
S'50'
p30
S'50'
p31
tp32
tp33
Rp34
g1
(g12
g3
(F0.26356521739130434
F0.04246988388961774
F0.3220108695652174
F0.14646739130434783
tp35
tp36
Rp37
sg1
(g2
g3
(S'0.00390625'
p38
S'0.00390625'
p39
S'0.004'
p40
S'50'
p41
S'50'
p42
tp43
tp44
Rp45
g1
(g12
g3
(F0.3818315217391305
F0.07153260181631549
F0.44402173913043474
F0.1535326086956522
tp46
tp47
Rp48
sg1
(g2
g3
(S'0.03125000'
p49
S'0.00390625'
p50
S'0.031'
p51
S'50'
p52
S'50'
p53
tp54
tp55
Rp56
g1
(g12
g3
(F0.4141902173913043
F0.08353845447597325
F0.47038043478260877
F0.15000000000000002
tp57
tp58
Rp59
sg1
(g2
g3
(S'2.00000000'
p60
S'0.00390625'
p61
S'2.000'
p62
S'50'
p63
S'50'
p64
tp65
tp66
Rp67
g1
(g12
g3
(F0.362375
F0.07897645637846726
F0.4345108695652174
F0.14402173913043478
tp68
tp69
Rp70
sg1
(g2
g3
(S'8.00000000'
p71
S'0.00390625'
p72
S'8.000'
p73
S'50'
p74
S'50'
p75
tp76
tp77
Rp78
g1
(g12
g3
(F0.2781521739130434
F0.04633209956964107
F0.32391304347826083
F0.1426630434782609
tp79
tp80
Rp81
sg1
(g2
g3
(S'0.00097656'
p82
S'0.00390625'
p83
S'0.001'
p84
S'50'
p85
S'50'
p86
tp87
tp88
Rp89
g1
(g12
g3
(F0.27417391304347827
F0.0312707255858851
F0.33152173913043476
F0.1480978260869565
tp90
tp91
Rp92
sg1
(g2
g3
(S'0.00195313'
p93
S'0.00390625'
p94
S'0.002'
p95
S'50'
p96
S'50'
p97
tp98
tp99
Rp100
g1
(g12
g3
(F0.42113586956521737
F0.0522402252204545
F0.4853260869565218
F0.17717391304347826
tp101
tp102
Rp103
sg1
(g2
g3
(S'1.00000000'
p104
S'0.00390625'
p105
S'1.000'
p106
S'50'
p107
S'50'
p108
tp109
tp110
Rp111
g1
(g12
g3
(F0.41334239130434786
F0.06837785818700157
F0.4676630434782608
F0.15217391304347824
tp112
tp113
Rp114
sg1
(g2
g3
(S'0.01562500'
p115
S'0.00390625'
p116
S'0.016'
p117
S'50'
p118
S'50'
p119
tp120
tp121
Rp122
g1
(g12
g3
(F0.43293478260869567
F0.07569809381484367
F0.48396739130434796
F0.13831521739130434
tp123
tp124
Rp125
sg1
(g2
g3
(S'0.06250000'
p126
S'0.00390625'
p127
S'0.063'
p128
S'50'
p129
S'50'
p130
tp131
tp132
Rp133
g1
(g12
g3
(F0.37383152173913037
F0.07026537663292107
F0.46385869565217386
F0.15516304347826088
tp134
tp135
Rp136
sg1
(g2
g3
(S'64.00000000'
p137
S'0.00390625'
p138
S'64.000'
p139
S'50'
p140
S'50'
p141
tp142
tp143
Rp144
g1
(g12
g3
(F0.16241847826086955
F0.018282337026222707
F0.23885869565217394
F0.13559782608695653
tp145
tp146
Rp147
sg1
(g2
g3
(S'0.12500000'
p148
S'0.00390625'
p149
S'0.125'
p150
S'50'
p151
S'50'
p152
tp153
tp154
Rp155
g1
(g12
g3
(F0.4466358695652174
F0.09837170483904567
F0.5217391304347826
F0.15815217391304348
tp156
tp157
Rp158
sg1
(g2
g3
(S'32.00000000'
p159
S'0.00390625'
p160
S'32.000'
p161
S'50'
p162
S'50'
p163
tp164
tp165
Rp166
g1
(g12
g3
(F0.1640978260869565
F0.017254747607513
F0.2266304347826087
F0.13614130434782606
tp167
tp168
Rp169
sg1
(g2
g3
(S'0.25000000'
p170
S'0.00390625'
p171
S'0.250'
p172
S'50'
p173
S'50'
p174
tp175
tp176
Rp177
g1
(g12
g3
(F0.3349184782608695
F0.06716839088252924
F0.39728260869565213
F0.14673913043478262
tp178
tp179
Rp180
sg1
(g2
g3
(S'256.00000000'
p181
S'0.00390625'
p182
S'256.000'
p183
S'50'
p184
S'50'
p185
tp186
tp187
Rp188
g1
(g12
g3
(F0.1589836956521739
F0.01241983435290005
F0.19592391304347828
F0.12961956521739132
tp189
tp190
Rp191
sg1
(g2
g3
(S'512.00000000'
p192
S'0.00390625'
p193
S'512.000'
p194
S'50'
p195
S'50'
p196
tp197
tp198
Rp199
g1
(g12
g3
(F0.1597554347826087
F0.015439793263865974
F0.2138586956521739
F0.13179347826086957
tp200
tp201
Rp202
sg1
(g2
g3
(S'4.00000000'
p203
S'0.00390625'
p204
S'4.000'
p205
S'50'
p206
S'50'
p207
tp208
tp209
Rp210
g1
(g12
g3
(F0.3512173913043478
F0.06814668656599626
F0.3959239130434783
F0.15081521739130435
tp211
tp212
Rp213
sg1
(g2
g3
(S'0.50000000'
p214
S'0.00390625'
p215
S'0.500'
p216
S'50'
p217
S'50'
p218
tp219
tp220
Rp221
g1
(g12
g3
(F0.3475217391304348
F0.06681411445134565
F0.41059782608695655
F0.14728260869565216
tp222
tp223
Rp224
s.