(dp0
ccopy_reg
_reconstructor
p1
(cscripts.archipelago_tuples
Parameters
p2
c__builtin__
tuple
p3
(S'1024.00000000'
p4
S'0.00390625'
p5
S'1024.000'
p6
S'40'
p7
S'20'
p8
tp9
tp10
Rp11
g1
(cscripts.archipelago_tuples
Metrics
p12
g3
(F0.2613926630434783
F0.08268048684935017
F0.5239130434782608
F0.14402173913043476
tp13
tp14
Rp15
sg1
(g2
g3
(S'1024.00000000'
p16
S'0.00390625'
p17
S'1024.000'
p18
S'20'
p19
S'20'
p20
tp21
tp22
Rp23
g1
(g12
g3
(F0.22512228260869566
F0.06314422581813373
F0.389945652173913
F0.1578804347826087
tp24
tp25
Rp26
sg1
(g2
g3
(S'1024.00000000'
p27
S'0.00390625'
p28
S'1024.000'
p29
S'160'
p30
S'20'
p31
tp32
tp33
Rp34
g1
(g12
g3
(F0.24034137228260866
F0.07364636783252168
F0.5543478260869564
F0.14429347826086958
tp35
tp36
Rp37
sg1
(g2
g3
(S'1024.00000000'
p38
S'0.00390625'
p39
S'1024.000'
p40
S'80'
p41
S'20'
p42
tp43
tp44
Rp45
g1
(g12
g3
(F0.25058763586956523
F0.07729086870414449
F0.5013586956521738
F0.15190217391304348
tp46
tp47
Rp48
sg1
(g2
g3
(S'1024.00000000'
p49
S'0.00390625'
p50
S'1024.000'
p51
S'140'
p52
S'20'
p53
tp54
tp55
Rp56
g1
(g12
g3
(F0.24393633540372672
F0.08322259878685764
F0.5679347826086956
F0.13994565217391305
tp57
tp58
Rp59
sg1
(g2
g3
(S'1024.00000000'
p60
S'0.00390625'
p61
S'1024.000'
p62
S'120'
p63
S'20'
p64
tp65
tp66
Rp67
g1
(g12
g3
(F0.23305480072463766
F0.06674864934877493
F0.5304347826086957
F0.1557065217391304
tp68
tp69
Rp70
sg1
(g2
g3
(S'1024.00000000'
p71
S'0.00390625'
p72
S'1024.000'
p73
S'100'
p74
S'20'
p75
tp76
tp77
Rp78
g1
(g12
g3
(F0.25240760869565215
F0.0831509323096797
F0.5687499999999999
F0.1502717391304348
tp79
tp80
Rp81
sg1
(g2
g3
(S'1024.00000000'
p82
S'0.00390625'
p83
S'1024.000'
p84
S'60'
p85
S'20'
p86
tp87
tp88
Rp89
g1
(g12
g3
(F0.2296467391304348
F0.0767948954774595
F0.5953804347826087
F0.1516304347826087
tp90
tp91
Rp92
s.