(dp0
ccopy_reg
_reconstructor
p1
(cscripts.archipelago_tuples
Parameters
p2
c__builtin__
tuple
p3
(S'0.00100000'
p4
S'0.00781250'
p5
S'0.001'
p6
S'10'
p7
S'10'
p8
S'300'
p9
tp10
tp11
Rp12
g1
(cscripts.archipelago_tuples
Metrics
p13
g3
(cnumpy.core.multiarray
scalar
p14
(cnumpy
dtype
p15
(S'f8'
p16
I0
I1
tp17
Rp18
(I3
S'<'
p19
NNNI-1
I-1
I0
tp20
bS'*\xcc\xcfTn\x1a\xd3?'
p21
tp22
Rp23
g14
(g18
S'\n\xe3\x18\x13\x99f\x84?'
p24
tp25
Rp26
g14
(g18
S' \x8ehS\t\xd0\x97?'
p27
tp28
Rp29
g14
(g18
S'\xaf\xdf\x1dXH9q?'
p30
tp31
Rp32
F0.3408732641464406
F0.26667483665400316
tp33
tp34
Rp35
sg1
(g2
g3
(S'0.00100000'
p36
S'0.25000000'
p37
S'0.001'
p38
S'10'
p39
S'10'
p40
S'300'
p41
tp42
tp43
Rp44
g1
(g13
g3
(g14
(g18
S'\xe4A\xd8\xa3\xf8\xe5\xd2?'
p45
tp46
Rp47
g14
(g18
S'Y?X4\xa8[\x91?'
p48
tp49
Rp50
g14
(g18
S'\xc2\xd7\xaa\x1a0\xe2\x8d?'
p51
tp52
Rp53
g14
(g18
S'#X5\xd7M~r?'
p54
tp55
Rp56
F0.32028908855191274
F0.27290197950193174
tp57
tp58
Rp59
sg1
(g2
g3
(S'0.00100000'
p60
S'8.00000000'
p61
S'0.001'
p62
S'10'
p63
S'10'
p64
S'300'
p65
tp66
tp67
Rp68
g1
(g13
g3
(g14
(g18
S'\x96\xad2\xe5\xf2\x93\xd7?'
p69
tp70
Rp71
g14
(g18
S'\xcb\x90\xd5O8:\x8a?'
p72
tp73
Rp74
g14
(g18
S'\xf8\x8dPO\xb7%\xa0?'
p75
tp76
Rp77
g14
(g18
S'\xa4\xd7\xf5\x15H*|?'
p78
tp79
Rp80
F0.4214210617973543
F0.3204192171002135
tp81
tp82
Rp83
sg1
(g2
g3
(S'0.00100000'
p84
S'2.00000000'
p85
S'0.001'
p86
S'10'
p87
S'10'
p88
S'300'
p89
tp90
tp91
Rp92
g1
(g13
g3
(g14
(g18
S'`f\xbc\xca\xe19\xd4?'
p93
tp94
Rp95
g14
(g18
S'\xc7\xfc\xd1\xb0\xc7\x8e\x80?'
p96
tp97
Rp98
g14
(g18
S'\xfc\x98\xbdm\x92R\x90?'
p99
tp100
Rp101
g14
(g18
S'_s\x1a\xa7\x16\xecq?'
p102
tp103
Rp104
F0.3416329117189868
F0.2901779552241694
tp105
tp106
Rp107
sg1
(g2
g3
(S'0.00100000'
p108
S'0.06250000'
p109
S'0.001'
p110
S'10'
p111
S'10'
p112
S'300'
p113
tp114
tp115
Rp116
g1
(g13
g3
(g14
(g18
S'O^\x17"@\x92\xd2?'
p117
tp118
Rp119
g14
(g18
S'\x17\x1e\x1b\xac\xdb\xa5\x8a?'
p120
tp121
Rp122
g14
(g18
S'\x85\xeeg2\x0e\xcd\x91?'
p123
tp124
Rp125
g14
(g18
S'\xac\xb4\x19\xe1\xc6\x96k?'
p126
tp127
Rp128
F0.32079589651636037
F0.26146405098072095
tp129
tp130
Rp131
sg1
(g2
g3
(S'0.00100000'
p132
S'256.00000000'
p133
S'0.001'
p134
S'10'
p135
S'10'
p136
S'300'
p137
tp138
tp139
Rp140
g1
(g13
g3
(g14
(g18
S'\xda\xc2Y\xaf\x1dV\xdd?'
p141
tp142
Rp143
g14
(g18
S'D^\xf2\xe6\xbf\x12\x8a?'
p144
tp145
Rp146
g14
(g18
S'\xd8b\xf2b^\xda\x87?'
p147
tp148
Rp149
g14
(g18
S'\x7f\xc8\xb7\x88\\p\x8e?'
p150
tp151
Rp152
F0.4638561910229039
F0.4308262759692723
tp153
tp154
Rp155
sg1
(g2
g3
(S'0.00100000'
p156
S'64.00000000'
p157
S'0.001'
p158
S'10'
p159
S'10'
p160
S'300'
p161
tp162
tp163
Rp164
g1
(g13
g3
(g14
(g18
S'\x9e-b6\xbbw\xdb?'
p165
tp166
Rp167
g14
(g18
S'0HIdv\xf2\x94?'
p168
tp169
Rp170
g14
(g18
S'*\xfe\xcc\x18\xda?\xa7?'
p171
tp172
Rp173
g14
(g18
S'\x1e\x89\x01;D\x03\x82?'
p174
tp175
Rp176
F0.46804384703203705
F0.3478605383161656
tp177
tp178
Rp179
sg1
(g2
g3
(S'0.00100000'
p180
S'0.03125000'
p181
S'0.001'
p182
S'10'
p183
S'10'
p184
S'300'
p185
tp186
tp187
Rp188
g1
(g13
g3
(g14
(g18
S'32\xed:\xeb\r\xd3?'
p189
tp190
Rp191
g14
(g18
S'\xcb\xde\x06m-W\x8a?'
p192
tp193
Rp194
g14
(g18
S'\x99K\x90\xa8\xa4\x84\x96?'
p195
tp196
Rp197
g14
(g18
S'\\\xabe\xd9k\xd8\x7f?'
p198
tp199
Rp200
F0.3492567999019601
F0.2675612265300989
tp201
tp202
Rp203
sg1
(g2
g3
(S'0.00100000'
p204
S'32.00000000'
p205
S'0.001'
p206
S'10'
p207
S'10'
p208
S'300'
p209
tp210
tp211
Rp212
g1
(g13
g3
(g14
(g18
S'\xd0\xe3\x87\xcd\x8d\xea\xda?'
p213
tp214
Rp215
g14
(g18
S'{\xb8\xfc\x9b>8\x91?'
p216
tp217
Rp218
g14
(g18
S'837\x81\xe3\x05\xab?'
p219
tp220
Rp221
g14
(g18
S'\x7fy[\x0c\xed\x97x?'
p222
tp223
Rp224
F0.486971826443669
F0.3436627235727784
tp225
tp226
Rp227
sg1
(g2
g3
(S'0.00100000'
p228
S'16.00000000'
p229
S'0.001'
p230
S'10'
p231
S'10'
p232
S'300'
p233
tp234
tp235
Rp236
g1
(g13
g3
(g14
(g18
S'\xa5\xf8w\xcc\xab\xfb\xd9?'
p237
tp238
Rp239
g14
(g18
S'\xc2\x1bXf)\x19\x92?'
p240
tp241
Rp242
g14
(g18
S'\x98\x98\n\xb2\xcc\xcd\xa4?'
p243
tp244
Rp245
g14
(g18
S'\xd1\xce\xfdx\xd7\xb6y?'
p246
tp247
Rp248
F0.45750295087042614
F0.34544582330897383
tp249
tp250
Rp251
sg1
(g2
g3
(S'0.00100000'
p252
S'4.00000000'
p253
S'0.001'
p254
S'10'
p255
S'10'
p256
S'300'
p257
tp258
tp259
Rp260
g1
(g13
g3
(g14
(g18
S'N3/G\x11\x17\xd6?'
p261
tp262
Rp263
g14
(g18
S'\xe6\xc8[e\xd0\xff\x97?'
p264
tp265
Rp266
g14
(g18
S'\xedI \xedy:\x97?'
p267
tp268
Rp269
g14
(g18
S'\x0c9\n\xac\xd3:k?'
p270
tp271
Rp272
F0.3805165151994014
F0.30720770257806096
tp273
tp274
Rp275
sg1
(g2
g3
(S'0.00100000'
p276
S'0.50000000'
p277
S'0.001'
p278
S'10'
p279
S'10'
p280
S'300'
p281
tp282
tp283
Rp284
g1
(g13
g3
(g14
(g18
S'\x86\x8e\xf3!J\xdf\xd2?'
p285
tp286
Rp287
g14
(g18
S'\x9d\xd7\xef\x82\x84\x89\x8c?'
p288
tp289
Rp290
g14
(g18
S'`}35\xdf\x8b\x8e?'
p291
tp292
Rp293
g14
(g18
S'\x0c\x1e-\xb1\x08[k?'
p294
tp295
Rp296
F0.3199069266442637
F0.27048500699823913
tp297
tp298
Rp299
sg1
(g2
g3
(S'0.00100000'
p300
S'0.00390625'
p301
S'0.001'
p302
S'10'
p303
S'10'
p304
S'300'
p305
tp306
tp307
Rp308
g1
(g13
g3
(g14
(g18
S'c7\x83%X\xc1\xd3?'
p309
tp310
Rp311
g14
(g18
S'2\x8d\xf4\xce\x1bg\x89?'
p312
tp313
Rp314
g14
(g18
S'\xce\xbc\xed\x1b\xec\x86\xa4?'
p315
tp316
Rp317
g14
(g18
S'\xd7W\xed\xa1\xa8\x03\x88?'
p318
tp319
Rp320
F0.40286943930236907
F0.27035616844793886
tp321
tp322
Rp323
sg1
(g2
g3
(S'0.00100000'
p324
S'1.00000000'
p325
S'0.001'
p326
S'10'
p327
S'10'
p328
S'300'
p329
tp330
tp331
Rp332
g1
(g13
g3
(g14
(g18
S'\x9a_\xb2\\\x86\x91\xd3?'
p333
tp334
Rp335
g14
(g18
S'\t\x86\x11\xba\xef\xc6\x91?'
p336
tp337
Rp338
g14
(g18
S'\xc6\x9c\x02\n\t\x80\x90?'
p339
tp340
Rp341
g14
(g18
S'\xad\xd1wE\x16wo?'
p342
tp343
Rp344
F0.3359182205767581
F0.27849218583711194
tp345
tp346
Rp347
sg1
(g2
g3
(S'0.00100000'
p348
S'0.12500000'
p349
S'0.001'
p350
S'10'
p351
S'10'
p352
S'300'
p353
tp354
tp355
Rp356
g1
(g13
g3
(g14
(g18
S'&\xf8\xb8\xfd=b\xd2?'
p357
tp358
Rp359
g14
(g18
S'\xd0}v\x14\x13K\x84?'
p360
tp361
Rp362
g14
(g18
S'\xebt\xfe\x9e\xae\xb4\x86?'
p363
tp364
Rp365
g14
(g18
S'\\3:\x9e\xae\x9aa?'
p366
tp367
Rp368
F0.30796880139835786
F0.2708695876521391
tp369
tp370
Rp371
sg1
(g2
g3
(S'0.00100000'
p372
S'0.01562500'
p373
S'0.001'
p374
S'10'
p375
S'10'
p376
S'300'
p377
tp378
tp379
Rp380
g1
(g13
g3
(g14
(g18
S'\xfe\x9b\xa7N*\xfa\xd2?'
p381
tp382
Rp383
g14
(g18
S'\x97\x0c\xcc\xdd\xa2T\x89?'
p384
tp385
Rp386
g14
(g18
S'\xc2\x9b\xb6if\xfa\x95?'
p387
tp388
Rp389
g14
(g18
S'\xdbM\x18-[8\x7f?'
p390
tp391
Rp392
F0.3455654706235206
F0.27175984752223636
tp393
tp394
Rp395
sg1
(g2
g3
(S'0.00100000'
p396
S'128.00000000'
p397
S'0.001'
p398
S'10'
p399
S'10'
p400
S'300'
p401
tp402
tp403
Rp404
g1
(g13
g3
(g14
(g18
S'\xe5\x123\xc4\xe4\xbc\xdd?'
p405
tp406
Rp407
g14
(g18
S'\xaa\x92|\xd3\x04\xb6\x97?'
p408
tp409
Rp410
g14
(g18
S's2\x0e@s\xbb\x8b?'
p411
tp412
Rp413
g14
(g18
S'\x16%Z\xe78\xa3\x87?'
p414
tp415
Rp416
F0.48442859538567706
F0.442382078057779
tp417
tp418
Rp419
s.